(dp1
S'history_length'
p2
I25
sS'sched_time'
p3
F0.5
sS'agent'
p4
S'dtclassifier'
p5
sS'result'
p6
(lp7
(lp8
I67
aI64
aI1
aF0.39082107614969275
aF0.51145038167938928
aI123
a(lp9
I1
aI2
aI3
aI4
aI5
aI6
aI7
aI8
aI9
aI11
aI12
aI13
aI15
aI16
aI17
aI20
aI21
aI23
aI24
aI25
aI27
aI28
aI29
aI31
aI32
aI33
aI35
aI36
aI38
aI39
aI40
aI43
aI44
aI46
aI49
aI51
aI53
aI55
aI59
aI60
aI61
aI62
aI67
aI68
aI70
aI71
aI72
aI73
aI75
aI76
aI77
aI78
aI80
aI81
aI82
aI83
aI85
aI86
aI88
aI91
aI92
aI93
aI94
aI98
aI99
aI100
aI101
aaa(lp10
I0
aI1
aI0
aF0
aF0
aI123
a(lp11
aa(lp12
I0
aI1
aI0
aF0
aF0
aI123
a(lp13
aa(lp14
I16
aI11
aI2
aF0.44222222222222224
aF0.59259259259259256
aI123
a(lp15
I2
aI3
aI5
aI6
aI7
aI9
aI10
aI12
aI13
aI17
aI18
aI19
aI21
aI22
aI23
aI24
aaa(lp16
I124
aI115
aI3
aF0.39486422183936337
aF0.51882845188284521
aI123
a(lp17
I3
aI4
aI7
aI8
aI10
aI15
aI16
aI17
aI18
aI19
aI21
aI22
aI24
aI33
aI34
aI35
aI36
aI38
aI39
aI45
aI46
aI48
aI54
aI56
aI57
aI58
aI60
aI62
aI64
aI65
aI66
aI67
aI68
aI70
aI72
aI74
aI75
aI81
aI84
aI88
aI89
aI91
aI93
aI98
aI101
aI102
aI103
aI104
aI105
aI107
aI112
aI114
aI116
aI119
aI120
aI121
aI122
aI125
aI127
aI128
aI131
aI132
aI134
aI137
aI138
aI141
aI142
aI145
aI146
aI147
aI148
aI149
aI151
aI153
aI154
aI156
aI157
aI158
aI161
aI162
aI164
aI165
aI167
aI168
aI171
aI180
aI182
aI183
aI184
aI190
aI191
aI194
aI198
aI204
aI205
aI209
aI211
aI215
aI216
aI217
aI219
aI224
aI225
aI227
aI229
aI232
aI233
aI234
aI235
aI236
aI242
aI248
aI251
aI254
aI255
aI257
aI258
aI266
aI267
aI272
aI273
aI276
aI277
aI281
aaa(lp18
I51
aI54
aI1
aF0.35320284697508897
aF0.48571428571428571
aI123
a(lp19
I1
aI2
aI19
aI24
aI30
aI33
aI42
aI46
aI55
aI61
aI62
aI83
aI88
aI89
aI95
aI100
aI110
aI112
aI123
aI130
aI134
aI141
aI148
aI151
aI155
aI158
aI160
aI170
aI172
aI183
aI191
aI194
aI196
aI211
aI212
aI213
aI215
aI217
aI219
aI228
aI241
aI244
aI246
aI254
aI255
aI266
aI268
aI269
aI272
aI277
aI280
aaa(lp20
I0
aI0
aI0
aI1
aI1
aI1
a(lp21
aa(lp22
I17
aI29
aI4
aF0.26501568803227249
aF0.36956521739130432
aI123
a(lp23
I4
aI5
aI7
aI9
aI14
aI25
aI29
aI30
aI32
aI33
aI34
aI35
aI38
aI42
aI43
aI47
aI48
aaa(lp24
I0
aI1
aI0
aF0
aF0
aI123
a(lp25
aa(lp26
I4
aI8
aI3
aF0.26250000000000001
aF0.33333333333333331
aI123
a(lp27
I3
aI4
aI5
aI7
aaa(lp28
I14
aI14
aI1
aF0.37500000000000006
aF0.5
aI123
a(lp29
I1
aI2
aI3
aI4
aI5
aI6
aI7
aI8
aI9
aI10
aI11
aI12
aI13
aI14
aaa(lp30
I0
aI1
aI0
aF0
aF0
aI123
a(lp31
aa(lp32
I40
aI44
aI1
aF0.35825892857142855
aF0.47619047619047616
aI123
a(lp33
I1
aI3
aI4
aI5
aI6
aI8
aI10
aI11
aI12
aI13
aI14
aI15
aI16
aI17
aI18
aI19
aI20
aI21
aI22
aI23
aI24
aI25
aI26
aI27
aI28
aI30
aI31
aI32
aI33
aI35
aI36
aI38
aI40
aI41
aI42
aI43
aI44
aI45
aI46
aI47
aaa(lp34
I0
aI1
aI0
aF0
aF0
aI123
a(lp35
aa(lp36
I18
aI17
aI1
aF0.37086834733893548
aF0.51428571428571423
aI123
a(lp37
I1
aI3
aI5
aI7
aI8
aI10
aI11
aI12
aI14
aI16
aI17
aI20
aI21
aI22
aI23
aI24
aI25
aI26
aaa(lp38
I0
aI1
aI0
aF0
aF0
aI123
a(lp39
aa(lp40
I39
aI33
aI14
aF0.41420962806026362
aF0.54166666666666663
aI123
a(lp41
I14
aI17
aI20
aI28
aI30
aI34
aI37
aI41
aI45
aI50
aI51
aI53
aI54
aI59
aI62
aI80
aI97
aI100
aI102
aI118
aI120
aI128
aI131
aI134
aI135
aI138
aI145
aI150
aI157
aI162
aI168
aI182
aI196
aI200
aI212
aI215
aI220
aI232
aI234
aaa(lp42
I17
aI26
aI10
aF0.30737704918032788
aF0.39534883720930231
aI123
a(lp43
I10
aI20
aI47
aI49
aI64
aI99
aI106
aI108
aI136
aI145
aI150
aI186
aI187
aI212
aI230
aI282
aI285
aaa(lp44
I0
aI1
aI0
aF0
aF0
aI123
a(lp45
aa(lp46
I2
aI3
aI1
aF0.32000000000000001
aF0.40000000000000002
aI123
a(lp47
I1
aI2
aaa(lp48
I10
aI8
aI2
aF0.39947089947089953
aF0.55555555555555558
aI123
a(lp49
I2
aI4
aI8
aI9
aI11
aI14
aI17
aI18
aI19
aI21
aaa(lp50
I0
aI0
aI0
aI1
aI1
aI1
a(lp51
aa(lp52
I1
aI0
aI1
aF0.75
aF1
aI123
a(lp53
I1
aaa(lp54
I0
aI1
aI0
aF0
aF0
aI123
a(lp55
aa(lp56
I19
aI15
aI4
aF0.4293168880455408
aF0.55882352941176472
aI123
a(lp57
I4
aI5
aI7
aI8
aI10
aI12
aI16
aI17
aI18
aI20
aI22
aI23
aI24
aI31
aI34
aI38
aI41
aI44
aI45
aaa(lp58
I1
aI0
aI6
aF0.6071428571428571
aF1
aI123
a(lp59
I6
aaa(lp60
I0
aI1
aI0
aF0
aF0
aI123
a(lp61
aa(lp62
I2
aI3
aI2
aF0.30909090909090914
aF0.40000000000000002
aI123
a(lp63
I2
aI4
aaa(lp64
I0
aI1
aI0
aF0
aF0
aI123
a(lp65
aa(lp66
I0
aI1
aI0
aF0
aF0
aI123
a(lp67
aa(lp68
I0
aI1
aI0
aF0
aF0
aI123
a(lp69
aa(lp70
I24
aI26
aI5
aF0.36041666666666661
aF0.47999999999999998
aI123
a(lp71
I5
aI11
aI24
aI31
aI36
aI44
aI46
aI52
aI59
aI68
aI90
aI98
aI101
aI107
aI115
aI125
aI127
aI138
aI163
aI165
aI166
aI167
aI182
aI188
aaa(lp72
I0
aI1
aI0
aF0
aF0
aI123
a(lp73
aa(lp74
I6
aI4
aI1
aF0.46666666666666667
aF0.59999999999999998
aI123
a(lp75
I1
aI2
aI3
aI4
aI6
aI7
aaa(lp76
I0
aI0
aI0
aI1
aI1
aI1
a(lp77
aa(lp78
I1
aI0
aI2
aF0.85000000000000009
aF1
aI123
a(lp79
I2
aaa(lp80
I0
aI1
aI0
aF0
aF0
aI123
a(lp81
aa(lp82
I9
aI6
aI1
aF0.45555555555555555
aF0.59999999999999998
aI123
a(lp83
I1
aI2
aI3
aI4
aI6
aI7
aI8
aI9
aI10
aaa(lp84
I7
aI6
aI2
aF0.38663967611336031
aF0.53846153846153844
aI123
a(lp85
I2
aI4
aI5
aI6
aI7
aI8
aI9
aaa(lp86
I4
aI6
aI2
aF0.29090909090909095
aF0.40000000000000002
aI123
a(lp87
I2
aI3
aI4
aI5
aaa(lp88
I0
aI1
aI0
aF0
aF0
aI123
a(lp89
aa(lp90
I0
aI1
aI0
aF0
aF0
aI123
a(lp91
aa(lp92
I0
aI1
aI0
aF0
aF0
aI123
a(lp93
aa(lp94
I2
aI1
aI2
aF0.44444444444444442
aF0.66666666666666663
aI123
a(lp95
I2
aI3
aaa(lp96
I0
aI0
aI0
aI1
aI1
aI1
a(lp97
aa(lp98
I17
aI16
aI1
aF0.37759387351778656
aF0.51515151515151514
aI123
a(lp99
I1
aI13
aI23
aI28
aI52
aI65
aI79
aI106
aI112
aI119
aI132
aI133
aI148
aI157
aI161
aI172
aI178
aaa(lp100
I26
aI30
aI8
aF0.35365615224191865
aF0.4642857142857143
aI123
a(lp101
I8
aI12
aI21
aI52
aI59
aI66
aI73
aI87
aI92
aI104
aI106
aI116
aI118
aI128
aI144
aI149
aI150
aI160
aI174
aI184
aI195
aI204
aI238
aI242
aI256
aI270
aaa(lp102
I2
aI1
aI10
aF0.44166666666666665
aF0.66666666666666663
aI123
a(lp103
I10
aI18
aaa(lp104
I11
aI24
aI8
aF0.23656462585034016
aF0.31428571428571428
aI123
a(lp105
I8
aI13
aI22
aI28
aI55
aI63
aI82
aI95
aI96
aI106
aI123
aaa(lp106
I1
aI0
aI1
aF0.75
aF1
aI123
a(lp107
I1
aaa(lp108
I0
aI0
aI0
aI1
aI1
aI1
a(lp109
aa(lp110
I16
aI9
aI4
aF0.46160919540229883
aF0.64000000000000001
aI123
a(lp111
I4
aI7
aI8
aI12
aI19
aI21
aI22
aI26
aI27
aI30
aI31
aI32
aI36
aI38
aI40
aI43
aaa(lp112
I2
aI0
aI3
aF0.78125
aF1
aI123
a(lp113
I3
aI5
aaa(lp114
I0
aI0
aI0
aI1
aI1
aI1
a(lp115
aa(lp116
I0
aI0
aI0
aI1
aI1
aI1
a(lp117
aa(lp118
I0
aI0
aI0
aI1
aI1
aI1
a(lp119
aa(lp120
I0
aI0
aI0
aI1
aI1
aI1
a(lp121
aa(lp122
I12
aI10
aI13
aF0.42167962149374788
aF0.54545454545454541
aI123
a(lp123
I13
aI29
aI55
aI66
aI107
aI125
aI134
aI149
aI164
aI174
aI202
aI253
aaa(lp124
I0
aI0
aI0
aI1
aI1
aI1
a(lp125
aa(lp126
I4
aI4
aI4
aF0.39204545454545453
aF0.5
aI123
a(lp127
I4
aI7
aI12
aI17
aaa(lp128
I0
aI0
aI0
aI1
aI1
aI1
a(lp129
aa(lp130
I0
aI1
aI0
aF0
aF0
aI123
a(lp131
aa(lp132
I48
aI42
aI19
aF0.41488502720730208
aF0.53333333333333333
aI123
a(lp133
I19
aI25
aI26
aI28
aI34
aI40
aI44
aI47
aI48
aI52
aI59
aI63
aI65
aI66
aI73
aI74
aI80
aI90
aI94
aI95
aI99
aI106
aI110
aI129
aI132
aI151
aI152
aI158
aI164
aI168
aI172
aI182
aI185
aI188
aI193
aI203
aI206
aI208
aI225
aI231
aI232
aI273
aI279
aI290
aI296
aI299
aI305
aI314
aaa(lp134
I0
aI0
aI0
aI1
aI1
aI1
a(lp135
aa(lp136
I23
aI16
aI3
aF0.46445798425996448
aF0.58974358974358976
aI123
a(lp137
I3
aI8
aI9
aI11
aI14
aI17
aI21
aI28
aI37
aI50
aI59
aI63
aI86
aI88
aI89
aI92
aI94
aI95
aI112
aI119
aI120
aI134
aI143
aaa(lp138
I0
aI0
aI0
aI1
aI1
aI1
a(lp139
aa(lp140
I26
aI30
aI5
aF0.35188923395445137
aF0.4642857142857143
aI123
a(lp141
I5
aI20
aI49
aI60
aI66
aI78
aI95
aI111
aI124
aI149
aI150
aI159
aI160
aI161
aI185
aI201
aI203
aI218
aI221
aI253
aI258
aI275
aI281
aI282
aI283
aI309
aaa(lp142
I47
aI58
aI2
aF0.33768349445041179
aF0.44761904761904764
aI123
a(lp143
I2
aI3
aI6
aI8
aI11
aI19
aI20
aI22
aI24
aI25
aI26
aI28
aI29
aI35
aI37
aI42
aI46
aI47
aI49
aI50
aI53
aI57
aI58
aI63
aI67
aI71
aI74
aI78
aI82
aI84
aI89
aI91
aI93
aI99
aI104
aI107
aI108
aI109
aI113
aI115
aI116
aI118
aI119
aI120
aI121
aI127
aI129
aaa(lp144
I0
aI1
aI0
aF0
aF0
aI123
a(lp145
aa(lp146
I6
aI9
aI7
aF0.29999999999999999
aF0.40000000000000002
aI123
a(lp147
I7
aI9
aI18
aI19
aI20
aI26
aaa(lp148
I8
aI2
aI3
aF0.58974358974358976
aF0.80000000000000004
aI123
a(lp149
I3
aI4
aI5
aI10
aI13
aI15
aI17
aI19
aaa(lp150
I12
aI15
aI2
aF0.29799914857386117
aF0.44444444444444442
aI123
a(lp151
I2
aI18
aI27
aI52
aI57
aI70
aI72
aI73
aI78
aI80
aI82
aI83
aaa(lp152
I27
aI14
aI2
aF0.50278530563083412
aF0.65853658536585369
aI123
a(lp153
I2
aI4
aI5
aI11
aI12
aI17
aI18
aI23
aI25
aI28
aI30
aI31
aI36
aI37
aI40
aI41
aI43
aI45
aI48
aI56
aI60
aI67
aI70
aI72
aI73
aI76
aI78
aaa(lp154
I19
aI15
aI7
aF0.41081252644942873
aF0.55882352941176472
aI123
a(lp155
I7
aI16
aI17
aI19
aI20
aI23
aI24
aI25
aI30
aI37
aI42
aI43
aI46
aI53
aI56
aI58
aI60
aI63
aI70
aaa(lp156
I18
aI19
aI1
aF0.34496314496314501
aF0.48648648648648651
aI123
a(lp157
I1
aI4
aI6
aI7
aI8
aI12
aI13
aI16
aI17
aI18
aI19
aI20
aI21
aI25
aI26
aI27
aI28
aI29
aaa(lp158
I0
aI1
aI0
aF0
aF0
aI123
a(lp159
aa(lp160
I41
aI39
aI4
aF0.37835477941176471
aF0.51249999999999996
aI123
a(lp161
I4
aI5
aI6
aI8
aI14
aI16
aI17
aI18
aI19
aI20
aI22
aI23
aI24
aI26
aI27
aI28
aI33
aI34
aI35
aI37
aI38
aI39
aI40
aI42
aI43
aI44
aI45
aI46
aI47
aI48
aI50
aI51
aI53
aI54
aI55
aI57
aI58
aI61
aI63
aI64
aI66
aaa(lp162
I8
aI3
aI1
aF0.51515151515151525
aF0.72727272727272729
aI123
a(lp163
I1
aI2
aI5
aI9
aI11
aI12
aI13
aI14
aaa(lp164
I3
aI3
aI1
aF0.37500000000000006
aF0.5
aI123
a(lp165
I1
aI2
aI3
aaa(lp166
I1
aI2
aI2
aF0.20833333333333331
aF0.33333333333333331
aI123
a(lp167
I2
aaa(lp168
I3
aI3
aI1
aF0.37500000000000006
aF0.5
aI123
a(lp169
I1
aI2
aI3
aaa(lp170
I0
aI0
aI0
aI1
aI1
aI1
a(lp171
aa(lp172
I6
aI8
aI4
aF0.30519480519480519
aF0.42857142857142855
aI123
a(lp173
I4
aI14
aI18
aI19
aI21
aI22
aaa(lp174
I0
aI1
aI0
aF0
aF0
aI123
a(lp175
aa(lp176
I5
aI3
aI5
aF0.40885416666666669
aF0.625
aI123
a(lp177
I5
aI8
aI9
aI10
aI12
aaa(lp178
I3
aI3
aI1
aF0.41666666666666669
aF0.5
aI123
a(lp179
I1
aI2
aI3
aaa(lp180
I0
aI0
aI0
aI1
aI1
aI1
a(lp181
aa(lp182
I3
aI5
aI3
aF0.26339285714285715
aF0.375
aI123
a(lp183
I3
aI5
aI6
aaa(lp184
I3
aI2
aI1
aF0.44999999999999996
aF0.59999999999999998
aI123
a(lp185
I1
aI2
aI3
aaa(lp186
I0
aI1
aI0
aF0
aF0
aI123
a(lp187
aa(lp188
I20
aI30
aI4
aF0.30069105691056913
aF0.40000000000000002
aI123
a(lp189
I4
aI16
aI31
aI42
aI44
aI48
aI59
aI86
aI112
aI121
aI143
aI149
aI155
aI158
aI184
aI187
aI199
aI226
aI243
aI246
aaa(lp190
I18
aI14
aI11
aF0.39980065666041276
aF0.5625
aI123
a(lp191
I11
aI20
aI41
aI96
aI100
aI125
aI132
aI141
aI149
aI159
aI165
aI178
aI210
aI221
aI252
aI259
aI261
aI264
aaa(lp192
I0
aI0
aI0
aI1
aI1
aI1
a(lp193
aa(lp194
I18
aI16
aI1
aF0.3955182072829132
aF0.52941176470588236
aI123
a(lp195
I1
aI2
aI3
aI10
aI14
aI16
aI22
aI25
aI28
aI30
aI31
aI33
aI36
aI45
aI46
aI47
aI48
aI50
aaa(lp196
I8
aI3
aI1
aF0.52561983471074381
aF0.72727272727272729
aI123
a(lp197
I1
aI10
aI14
aI17
aI18
aI19
aI22
aI25
aaa(lp198
I0
aI1
aI0
aF0
aF0
aI123
a(lp199
aa(lp200
I35
aI32
aI2
aF0.37711360142807554
aF0.52238805970149249
aI123
a(lp201
I2
aI10
aI17
aI31
aI38
aI50
aI74
aI83
aI90
aI95
aI105
aI108
aI110
aI115
aI138
aI153
aI167
aI173
aI182
aI192
aI214
aI217
aI226
aI243
aI249
aI252
aI253
aI274
aI275
aI279
aI281
aI285
aI293
aI301
aI302
aaa(lp202
I32
aI28
aI4
aF0.39960435212660733
aF0.53333333333333333
aI123
a(lp203
I4
aI7
aI21
aI26
aI31
aI35
aI36
aI44
aI45
aI49
aI52
aI55
aI56
aI62
aI66
aI89
aI95
aI100
aI102
aI103
aI110
aI112
aI114
aI119
aI126
aI132
aI137
aI142
aI156
aI162
aI164
aI168
aaa(lp204
I1
aI2
aI2
aF0.20833333333333331
aF0.33333333333333331
aI123
a(lp205
I2
aaa(lp206
I2
aI2
aI15
aF0.34469696969696972
aF0.5
aI123
a(lp207
I15
aI27
aaa(lp208
I0
aI0
aI0
aI1
aI1
aI1
a(lp209
aa(lp210
I0
aI0
aI0
aI1
aI1
aI1
a(lp211
aa(lp212
I22
aI22
aI9
aF0.36684880509186985
aF0.5
aI123
a(lp213
I9
aI24
aI34
aI45
aI61
aI105
aI123
aI124
aI168
aI174
aI219
aI264
aI280
aI284
aI288
aI290
aI291
aI312
aI321
aI335
aI346
aI349
aaa(lp214
I0
aI1
aI0
aF0
aF0
aI123
a(lp215
aa(lp216
I12
aI9
aI1
aF0.42857142857142849
aF0.5714285714285714
aI123
a(lp217
I1
aI2
aI3
aI6
aI7
aI9
aI10
aI11
aI14
aI15
aI16
aI17
aaa(lp218
I0
aI1
aI0
aF0
aF0
aI123
a(lp219
aa(lp220
I11
aI7
aI4
aF0.4646057347670251
aF0.61111111111111116
aI123
a(lp221
I4
aI5
aI6
aI8
aI9
aI15
aI20
aI22
aI25
aI27
aI28
aaa(lp222
I0
aI1
aI0
aF0
aF0
aI123
a(lp223
aa(lp224
I16
aI26
aI1
aF0.30122448979591837
aF0.38095238095238093
aI123
a(lp225
I1
aI11
aI13
aI14
aI21
aI27
aI30
aI31
aI37
aI42
aI43
aI45
aI63
aI67
aI72
aI77
aaa(lp226
I21
aI13
aI3
aF0.48571071488085321
aF0.61764705882352944
aI123
a(lp227
I3
aI12
aI15
aI19
aI28
aI38
aI46
aI54
aI60
aI62
aI65
aI88
aI89
aI91
aI99
aI110
aI123
aI135
aI143
aI145
aI169
aaa(lp228
I7
aI5
aI3
aF0.46770833333333334
aF0.58333333333333337
aI123
a(lp229
I3
aI5
aI6
aI7
aI10
aI11
aI17
aaa(lp230
I0
aI2
aI0
aF0
aF0
aI123
a(lp231
aa(lp232
I11
aI13
aI14
aF0.31326452599388377
aF0.45833333333333331
aI123
a(lp233
I14
aI21
aI24
aI26
aI31
aI34
aI41
aI45
aI46
aI51
aI52
aaa(lp234
I1
aI1
aI1
aF0.41666666666666669
aF0.5
aI123
a(lp235
I1
aaa(lp236
I0
aI1
aI0
aF0
aF0
aI123
a(lp237
aa(lp238
I1
aI3
aI1
aF0.22500000000000001
aF0.25
aI123
a(lp239
I1
aaa(lp240
I0
aI0
aI0
aI1
aI1
aI1
a(lp241
aa(lp242
I1
aI0
aI5
aF0.59090909090909083
aF1
aI123
a(lp243
I5
aaa(lp244
I0
aI1
aI0
aF0
aF0
aI123
a(lp245
aa(lp246
I12
aI11
aI4
aF0.31159420289855072
aF0.52173913043478259
aI123
a(lp247
I4
aI5
aI7
aI12
aI14
aI15
aI18
aI19
aI20
aI21
aI22
aI23
aaa(lp248
I0
aI1
aI0
aF0
aF0
aI123
a(lp249
aa(lp250
I13
aI9
aI1
aF0.40019762845849804
aF0.59090909090909094
aI123
a(lp251
I1
aI3
aI4
aI5
aI6
aI7
aI8
aI9
aI10
aI11
aI12
aI13
aI14
aaa(lp252
I9
aI9
aI1
aF0.38157894736842107
aF0.5
aI123
a(lp253
I1
aI2
aI3
aI4
aI5
aI6
aI7
aI8
aI9
aaa(lp254
I10
aI11
aI1
aF0.36281179138321989
aF0.47619047619047616
aI123
a(lp255
I1
aI2
aI3
aI4
aI5
aI6
aI7
aI8
aI9
aI10
aaa(lp256
I4
aI3
aI1
aF0.4081632653061224
aF0.5714285714285714
aI123
a(lp257
I1
aI2
aI3
aI4
aaa(lp258
I0
aI1
aI0
aF0
aF0
aI123
a(lp259
aa(lp260
I11
aI10
aI1
aF0.3928571428571429
aF0.52380952380952384
aI123
a(lp261
I1
aI2
aI3
aI4
aI5
aI6
aI7
aI8
aI9
aI10
aI11
aaa(lp262
I112
aI130
aI1
aF0.35543380691491011
aF0.46280991735537191
aI123
a(lp263
I1
aI3
aI4
aI5
aI6
aI7
aI8
aI9
aI10
aI11
aI12
aI13
aI14
aI15
aI16
aI17
aI18
aI19
aI20
aI21
aI22
aI23
aI24
aI25
aI26
aI28
aI29
aI31
aI32
aI33
aI34
aI35
aI36
aI37
aI39
aI40
aI41
aI42
aI43
aI44
aI45
aI46
aI48
aI49
aI50
aI51
aI52
aI53
aI54
aI55
aI56
aI57
aI59
aI60
aI61
aI62
aI63
aI64
aI65
aI66
aI69
aI70
aI71
aI72
aI73
aI74
aI75
aI76
aI77
aI78
aI79
aI80
aI81
aI82
aI83
aI84
aI85
aI86
aI87
aI88
aI89
aI90
aI92
aI93
aI94
aI95
aI96
aI97
aI98
aI99
aI100
aI102
aI103
aI104
aI105
aI106
aI107
aI108
aI109
aI111
aI112
aI113
aI114
aI115
aI116
aI118
aI119
aI120
aI121
aI122
aI123
aI124
aaa(lp264
I35
aI42
aI1
aF0.33672189879086428
aF0.45454545454545453
aI123
a(lp265
I1
aI2
aI3
aI6
aI9
aI10
aI11
aI13
aI14
aI16
aI17
aI22
aI24
aI25
aI27
aI31
aI38
aI39
aI44
aI47
aI48
aI52
aI53
aI55
aI59
aI60
aI61
aI63
aI64
aI66
aI68
aI69
aI71
aI72
aI73
aaa(lp266
I47
aI42
aI2
aF0.40760101198005799
aF0.5280898876404494
aI123
a(lp267
I2
aI3
aI7
aI9
aI13
aI18
aI25
aI28
aI30
aI37
aI40
aI41
aI42
aI44
aI45
aI47
aI49
aI56
aI58
aI63
aI65
aI66
aI70
aI72
aI75
aI77
aI78
aI79
aI81
aI82
aI84
aI88
aI89
aI92
aI95
aI97
aI100
aI103
aI107
aI108
aI110
aI111
aI118
aI124
aI141
aI143
aI150
aaa(lp268
I57
aI53
aI4
aF0.40284090909090908
aF0.51818181818181819
aI123
a(lp269
I4
aI9
aI11
aI12
aI14
aI15
aI17
aI21
aI25
aI28
aI29
aI30
aI31
aI32
aI34
aI38
aI41
aI42
aI45
aI48
aI50
aI55
aI57
aI58
aI61
aI66
aI67
aI68
aI69
aI72
aI74
aI75
aI76
aI78
aI81
aI82
aI83
aI84
aI89
aI90
aI97
aI101
aI103
aI106
aI108
aI112
aI119
aI120
aI121
aI122
aI123
aI125
aI126
aI130
aI133
aI135
aI145
aaa(lp270
I0
aI0
aI0
aI1
aI1
aI1
a(lp271
aa(lp272
I20
aI15
aI1
aF0.45408708938120695
aF0.5714285714285714
aI123
a(lp273
I1
aI4
aI6
aI7
aI9
aI15
aI24
aI26
aI31
aI38
aI40
aI42
aI46
aI48
aI56
aI63
aI73
aI75
aI81
aI93
aaa(lp274
I10
aI6
aI1
aF0.47585227272727271
aF0.625
aI123
a(lp275
I1
aI3
aI7
aI8
aI10
aI11
aI12
aI14
aI21
aI23
aaa(lp276
I6
aI6
aI1
aF0.39583333333333331
aF0.5
aI123
a(lp277
I1
aI2
aI3
aI4
aI6
aI7
aaa(lp278
I14
aI9
aI2
aF0.4145962732919255
aF0.60869565217391308
aI123
a(lp279
I2
aI4
aI5
aI6
aI7
aI8
aI9
aI10
aI11
aI12
aI13
aI14
aI15
aI16
aaa(lp280
I49
aI35
aI1
aF0.43506117724867727
aF0.58333333333333337
aI123
a(lp281
I1
aI2
aI5
aI6
aI7
aI9
aI10
aI11
aI14
aI15
aI16
aI18
aI19
aI20
aI21
aI22
aI23
aI24
aI25
aI27
aI28
aI31
aI32
aI33
aI34
aI37
aI39
aI40
aI41
aI42
aI43
aI44
aI46
aI48
aI49
aI50
aI52
aI54
aI57
aI62
aI64
aI65
aI70
aI74
aI75
aI76
aI78
aI79
aI80
aaa(lp282
I13
aI9
aI2
aF0.42488193624557263
aF0.59090909090909094
aI123
a(lp283
I2
aI4
aI13
aI23
aI42
aI43
aI50
aI52
aI56
aI63
aI68
aI69
aI84
aaa(lp284
I0
aI0
aI0
aI1
aI1
aI1
a(lp285
aa(lp286
I9
aI4
aI1
aF0.56373626373626373
aF0.69230769230769229
aI123
a(lp287
I1
aI3
aI4
aI5
aI6
aI8
aI9
aI13
aI14
aaa(lp288
I15
aI16
aI2
aF0.34803427419354838
aF0.4838709677419355
aI123
a(lp289
I2
aI3
aI7
aI9
aI11
aI12
aI14
aI18
aI22
aI26
aI28
aI29
aI31
aI32
aI33
aaa(lp290
I11
aI12
aI1
aF0.36670480549199086
aF0.47826086956521741
aI123
a(lp291
I1
aI4
aI5
aI6
aI7
aI8
aI10
aI13
aI14
aI16
aI19
aaa(lp292
I67
aI74
aI2
aF0.35510345836075163
aF0.47517730496453903
aI123
a(lp293
I2
aI3
aI4
aI5
aI6
aI8
aI9
aI10
aI12
aI13
aI15
aI16
aI19
aI21
aI22
aI23
aI24
aI25
aI26
aI27
aI28
aI30
aI32
aI35
aI37
aI38
aI39
aI40
aI42
aI44
aI47
aI50
aI51
aI52
aI53
aI54
aI55
aI56
aI57
aI58
aI60
aI62
aI63
aI65
aI66
aI68
aI69
aI70
aI72
aI74
aI75
aI76
aI77
aI78
aI82
aI83
aI84
aI85
aI86
aI87
aI88
aI90
aI92
aI93
aI94
aI95
aI96
aaa(lp294
I4
aI4
aI1
aF0.40909090909090906
aF0.5
aI123
a(lp295
I1
aI4
aI5
aI8
aaa(lp296
I8
aI5
aI1
aF0.47435897435897439
aF0.61538461538461542
aI123
a(lp297
I1
aI3
aI6
aI8
aI9
aI10
aI15
aI18
aaa(lp298
I16
aI18
aI2
aF0.3529411764705882
aF0.47058823529411764
aI123
a(lp299
I2
aI3
aI4
aI5
aI7
aI8
aI9
aI10
aI11
aI12
aI13
aI14
aI15
aI16
aI19
aI20
aaa(lp300
I0
aI1
aI0
aF0
aF0
aI123
a(lp301
aa(lp302
I24
aI8
aI7
aF0.48226351351351349
aF0.75
aI123
a(lp303
I7
aI9
aI10
aI13
aI16
aI17
aI19
aI21
aI22
aI24
aI25
aI26
aI27
aI28
aI29
aI32
aI34
aI36
aI37
aI38
aI39
aI44
aI45
aI48
aaa(lp304
I0
aI1
aI0
aF0
aF0
aI123
a(lp305
aa(lp306
I9
aI2
aI1
aF0.62440191387559807
aF0.81818181818181823
aI123
a(lp307
I1
aI2
aI3
aI4
aI5
aI6
aI7
aI8
aI9
aaa(lp308
I0
aI0
aI0
aI1
aI1
aI1
a(lp309
aa(lp310
I0
aI1
aI0
aF0
aF0
aI123
a(lp311
aa(lp312
I48
aI53
aI3
aF0.36608112424145639
aF0.47524752475247523
aI123
a(lp313
I3
aI4
aI5
aI6
aI7
aI8
aI9
aI10
aI12
aI13
aI14
aI15
aI16
aI17
aI18
aI19
aI23
aI24
aI26
aI28
aI29
aI30
aI31
aI32
aI34
aI35
aI36
aI37
aI38
aI39
aI41
aI47
aI51
aI52
aI53
aI54
aI58
aI60
aI61
aI63
aI64
aI66
aI68
aI70
aI73
aI75
aI78
aI81
aaa(lp314
I9
aI2
aI1
aF0.48347107438016534
aF0.81818181818181823
aI123
a(lp315
I1
aI2
aI3
aI4
aI5
aI6
aI7
aI8
aI9
aaa(lp316
I0
aI1
aI0
aF0
aF0
aI123
a(lp317
aa(lp318
I5
aI7
aI3
aF0.35037878787878785
aF0.41666666666666669
aI123
a(lp319
I3
aI4
aI11
aI12
aI25
aaa(lp320
I10
aI8
aI1
aF0.40909090909090917
aF0.55555555555555558
aI123
a(lp321
I1
aI2
aI4
aI5
aI6
aI7
aI8
aI9
aI10
aI11
aaa(lp322
I5
aI4
aI2
aF0.36928104575163401
aF0.55555555555555558
aI123
a(lp323
I2
aI3
aI5
aI9
aI12
aaa(lp324
I0
aI1
aI0
aF0
aF0
aI123
a(lp325
aa(lp326
I18
aI12
aI2
aF0.42173913043478262
aF0.59999999999999998
aI123
a(lp327
I2
aI3
aI4
aI7
aI8
aI9
aI10
aI12
aI13
aI16
aI17
aI18
aI19
aI20
aI21
aI24
aI25
aI27
aaa(lp328
I19
aI21
aI2
aF0.340491452991453
aF0.47499999999999998
aI123
a(lp329
I2
aI6
aI8
aI12
aI17
aI18
aI20
aI27
aI34
aI36
aI43
aI46
aI47
aI48
aI52
aI53
aI54
aI56
aI60
aaa(lp330
I0
aI1
aI0
aF0
aF0
aI123
a(lp331
aa(lp332
I46
aI61
aI10
aF0.31561188284130698
aF0.42990654205607476
aI123
a(lp333
I10
aI20
aI26
aI43
aI47
aI50
aI51
aI58
aI68
aI71
aI80
aI83
aI89
aI107
aI161
aI183
aI188
aI194
aI208
aI210
aI222
aI227
aI228
aI230
aI254
aI273
aI282
aI283
aI284
aI287
aI299
aI304
aI308
aI320
aI326
aI327
aI329
aI333
aI334
aI338
aI343
aI345
aI356
aI364
aI365
aI372
aaa(lp334
I0
aI1
aI0
aF0
aF0
aI123
a(lp335
aa(lp336
I19
aI11
aI2
aF0.4294871794871794
aF0.6333333333333333
aI123
a(lp337
I2
aI3
aI4
aI5
aI7
aI8
aI9
aI10
aI12
aI14
aI15
aI16
aI17
aI18
aI19
aI20
aI22
aI23
aI24
aaa(lp338
I8
aI7
aI6
aF0.39918699186991868
aF0.53333333333333333
aI123
a(lp339
I6
aI7
aI21
aI22
aI23
aI26
aI29
aI35
aaa(lp340
I9
aI5
aI1
aF0.44302721088435376
aF0.6428571428571429
aI123
a(lp341
I1
aI4
aI9
aI10
aI14
aI16
aI19
aI20
aI29
aaa(lp342
I143
aI151
aI2
aF0.36771828984758459
aF0.48639455782312924
aI123
a(lp343
I2
aI3
aI4
aI5
aI6
aI7
aI9
aI10
aI11
aI12
aI13
aI14
aI15
aI16
aI17
aI18
aI19
aI20
aI21
aI22
aI23
aI24
aI25
aI26
aI27
aI28
aI29
aI30
aI31
aI32
aI33
aI34
aI35
aI36
aI37
aI38
aI39
aI40
aI41
aI42
aI43
aI44
aI45
aI46
aI47
aI48
aI49
aI50
aI51
aI52
aI53
aI54
aI55
aI56
aI57
aI58
aI59
aI60
aI61
aI62
aI63
aI64
aI65
aI66
aI67
aI69
aI70
aI71
aI72
aI73
aI74
aI75
aI76
aI77
aI79
aI80
aI81
aI82
aI83
aI84
aI85
aI86
aI87
aI88
aI89
aI90
aI91
aI92
aI93
aI94
aI96
aI99
aI101
aI102
aI103
aI104
aI105
aI106
aI107
aI108
aI109
aI110
aI111
aI112
aI114
aI115
aI116
aI117
aI118
aI120
aI121
aI122
aI124
aI125
aI127
aI128
aI129
aI131
aI132
aI133
aI134
aI135
aI136
aI137
aI138
aI139
aI140
aI141
aI142
aI143
aI144
aI145
aI146
aI147
aI148
aI149
aI150
aI152
aI153
aI154
aI155
aI156
aI158
aaa(lp344
I4
aI6
aI13
aF0.28730158730158728
aF0.40000000000000002
aI123
a(lp345
I13
aI17
aI18
aI25
aaa(lp346
I9
aI23
aI2
aF0.22540509259259259
aF0.28125
aI123
a(lp347
I2
aI3
aI7
aI8
aI11
aI14
aI17
aI19
aI20
aaa(lp348
I23
aI29
aI3
aF0.35215256797583078
aF0.44230769230769229
aI123
a(lp349
I3
aI23
aI38
aI44
aI51
aI59
aI62
aI80
aI84
aI100
aI101
aI112
aI114
aI122
aI145
aI202
aI206
aI214
aI221
aI224
aI284
aI303
aI323
aaa(lp350
I0
aI1
aI0
aF0
aF0
aI123
a(lp351
aa(lp352
I73
aI71
aI1
aF0.37110487891737887
aF0.50694444444444442
aI123
a(lp353
I1
aI3
aI4
aI5
aI7
aI8
aI10
aI12
aI13
aI14
aI15
aI16
aI17
aI18
aI19
aI20
aI21
aI22
aI23
aI24
aI26
aI27
aI28
aI29
aI30
aI31
aI32
aI33
aI34
aI35
aI36
aI37
aI38
aI39
aI40
aI41
aI42
aI43
aI44
aI45
aI46
aI47
aI48
aI51
aI52
aI53
aI54
aI55
aI56
aI57
aI58
aI59
aI60
aI61
aI62
aI63
aI64
aI65
aI66
aI67
aI68
aI69
aI70
aI71
aI72
aI73
aI74
aI75
aI76
aI77
aI78
aI79
aI80
aaa(lp354
I1
aI2
aI1
aF0.27777777777777779
aF0.33333333333333331
aI123
a(lp355
I1
aaa(lp356
I11
aI12
aI1
aF0.36389413988657848
aF0.47826086956521741
aI123
a(lp357
I1
aI2
aI3
aI4
aI5
aI6
aI7
aI8
aI9
aI10
aI11
aaa(lp358
I26
aI25
aI1
aF0.37195484254307781
aF0.50980392156862742
aI123
a(lp359
I1
aI2
aI3
aI4
aI5
aI6
aI7
aI11
aI12
aI13
aI14
aI15
aI16
aI19
aI21
aI23
aI25
aI26
aI28
aI29
aI30
aI31
aI32
aI33
aI35
aI36
aaa(lp360
I25
aI16
aI4
aF0.40779748706577978
aF0.6097560975609756
aI123
a(lp361
I4
aI6
aI7
aI8
aI9
aI10
aI13
aI15
aI16
aI17
aI21
aI23
aI24
aI26
aI27
aI28
aI29
aI31
aI32
aI33
aI34
aI35
aI36
aI37
aI38
aaa(lp362
I74
aI76
aI8
aF0.37131578947368427
aF0.49333333333333335
aI123
a(lp363
I8
aI20
aI22
aI25
aI39
aI55
aI63
aI69
aI73
aI77
aI83
aI98
aI99
aI112
aI115
aI118
aI123
aI129
aI131
aI139
aI146
aI147
aI148
aI162
aI164
aI182
aI188
aI234
aI235
aI238
aI245
aI246
aI248
aI252
aI257
aI258
aI273
aI277
aI280
aI282
aI289
aI301
aI313
aI320
aI322
aI330
aI335
aI338
aI342
aI344
aI348
aI349
aI353
aI354
aI366
aI367
aI382
aI404
aI405
aI409
aI414
aI417
aI419
aI427
aI432
aI445
aI447
aI465
aI478
aI482
aI504
aI513
aI518
aI519
aaa(lp364
I0
aI0
aI0
aI1
aI1
aI1
a(lp365
aa(lp366
I189
aI192
aI2
aF0.3702541715964261
aF0.49606299212598426
aI123
a(lp367
I2
aI4
aI7
aI12
aI14
aI15
aI17
aI18
aI19
aI23
aI29
aI30
aI31
aI33
aI39
aI44
aI45
aI48
aI49
aI50
aI53
aI54
aI59
aI61
aI62
aI64
aI68
aI69
aI74
aI75
aI77
aI79
aI81
aI82
aI83
aI84
aI93
aI95
aI98
aI102
aI107
aI110
aI112
aI113
aI115
aI116
aI119
aI126
aI129
aI132
aI134
aI137
aI138
aI146
aI147
aI148
aI151
aI156
aI157
aI160
aI161
aI166
aI169
aI171
aI172
aI176
aI178
aI183
aI184
aI185
aI187
aI189
aI201
aI202
aI203
aI205
aI211
aI212
aI214
aI216
aI217
aI219
aI220
aI222
aI226
aI228
aI230
aI231
aI232
aI233
aI236
aI237
aI238
aI239
aI241
aI245
aI247
aI248
aI250
aI252
aI253
aI259
aI265
aI270
aI272
aI276
aI277
aI278
aI280
aI282
aI283
aI286
aI287
aI291
aI292
aI293
aI296
aI297
aI301
aI304
aI308
aI311
aI313
aI314
aI316
aI318
aI322
aI323
aI324
aI325
aI333
aI335
aI341
aI344
aI348
aI349
aI354
aI356
aI365
aI367
aI372
aI373
aI375
aI378
aI379
aI380
aI381
aI385
aI388
aI392
aI394
aI395
aI399
aI403
aI404
aI406
aI407
aI410
aI412
aI413
aI415
aI416
aI418
aI422
aI423
aI424
aI431
aI432
aI436
aI440
aI441
aI443
aI445
aI447
aI450
aI451
aI454
aI455
aI460
aI462
aI463
aI464
aI468
aI473
aI475
aI477
aI478
aI480
aI482
aaa(lp368
I0
aI0
aI0
aI1
aI1
aI1
a(lp369
aa(lp370
I33
aI39
aI4
aF0.31999331806032838
aF0.45833333333333331
aI123
a(lp371
I4
aI15
aI28
aI32
aI39
aI40
aI47
aI56
aI58
aI61
aI63
aI64
aI66
aI75
aI85
aI91
aI96
aI105
aI108
aI110
aI113
aI115
aI117
aI119
aI121
aI123
aI124
aI126
aI128
aI132
aI133
aI154
aI167
aaa(lp372
I31
aI13
aI1
aF0.49466046002190583
aF0.70454545454545459
aI123
a(lp373
I1
aI2
aI3
aI5
aI6
aI7
aI9
aI10
aI13
aI14
aI15
aI16
aI20
aI21
aI24
aI25
aI26
aI27
aI29
aI32
aI34
aI35
aI39
aI40
aI41
aI42
aI45
aI48
aI50
aI51
aI52
aaa(lp374
I17
aI18
aI7
aF0.39837662337662338
aF0.48571428571428571
aI123
a(lp375
I7
aI10
aI12
aI18
aI22
aI35
aI40
aI56
aI62
aI94
aI114
aI134
aI138
aI160
aI175
aI192
aI219
aaa(lp376
I0
aI0
aI0
aI1
aI1
aI1
a(lp377
aa(lp378
I14
aI11
aI4
aF0.40437956204379566
aF0.56000000000000005
aI123
a(lp379
I4
aI6
aI7
aI19
aI20
aI21
aI42
aI48
aI53
aI54
aI58
aI62
aI71
aI75
aaa(lp380
I4
aI12
aI1
aF0.20945945945945946
aF0.25
aI123
a(lp381
I1
aI4
aI7
aI14
aaa(lp382
I39
aI40
aI3
aF0.36651323360184118
aF0.49367088607594939
aI123
a(lp383
I3
aI4
aI6
aI10
aI14
aI18
aI22
aI26
aI27
aI28
aI29
aI31
aI32
aI33
aI34
aI37
aI38
aI40
aI41
aI43
aI49
aI54
aI57
aI60
aI61
aI63
aI64
aI66
aI71
aI73
aI74
aI79
aI81
aI82
aI84
aI85
aI87
aI93
aI99
aaa(lp384
I9
aI6
aI2
aF0.46699669966996699
aF0.59999999999999998
aI123
a(lp385
I2
aI4
aI7
aI8
aI30
aI31
aI40
aI41
aI43
aaa(lp386
I22
aI34
aI3
aF0.30972558514931392
aF0.39285714285714285
aI123
a(lp387
I3
aI4
aI5
aI15
aI16
aI19
aI24
aI25
aI27
aI28
aI31
aI32
aI36
aI39
aI45
aI53
aI60
aI61
aI71
aI79
aI80
aI82
aaa(lp388
I0
aI1
aI0
aF0
aF0
aI123
a(lp389
aa(lp390
I23
aI19
aI1
aF0.39723590585659557
aF0.54761904761904767
aI123
a(lp391
I1
aI4
aI6
aI15
aI18
aI19
aI20
aI21
aI22
aI24
aI25
aI26
aI27
aI28
aI29
aI30
aI31
aI32
aI33
aI34
aI36
aI39
aI41
aaa(lp392
I22
aI9
aI4
aF0.4699322978892872
aF0.70967741935483875
aI123
a(lp393
I4
aI6
aI11
aI13
aI14
aI16
aI18
aI19
aI20
aI24
aI25
aI28
aI32
aI34
aI37
aI39
aI40
aI42
aI44
aI46
aI49
aI52
aaa(lp394
I16
aI15
aI1
aF0.38330170777988615
aF0.5161290322580645
aI123
a(lp395
I1
aI2
aI3
aI4
aI6
aI7
aI8
aI9
aI10
aI11
aI12
aI13
aI14
aI15
aI16
aI17
aaa(lp396
I1
aI0
aI4
aF0.85416666666666674
aF1
aI123
a(lp397
I4
aaa(lp398
I8
aI1
aI5
aF0.52020202020202011
aF0.88888888888888884
aI123
a(lp399
I5
aI6
aI7
aI9
aI10
aI11
aI14
aI15
aaa(lp400
I4
aI0
aI1
aF0.75
aF1
aI123
a(lp401
I1
aI2
aI4
aI6
aaa(lp402
I0
aI0
aI0
aI1
aI1
aI1
a(lp403
aa(lp404
I17
aI9
aI2
aF0.4086538461538462
aF0.65384615384615385
aI123
a(lp405
I2
aI5
aI7
aI10
aI11
aI12
aI14
aI15
aI16
aI19
aI20
aI23
aI25
aI26
aI27
aI28
aI29
aaa(lp406
I0
aI0
aI0
aI1
aI1
aI1
a(lp407
aa(lp408
I0
aI0
aI0
aI1
aI1
aI1
a(lp409
aa(lp410
I1
aI2
aI3
aF0.19444444444444442
aF0.33333333333333331
aI123
a(lp411
I3
aaa(lp412
I9
aI3
aI1
aF0.53009259259259267
aF0.75
aI123
a(lp413
I1
aI2
aI3
aI5
aI6
aI7
aI8
aI9
aI11
aaa(lp414
I0
aI0
aI0
aI1
aI1
aI1
a(lp415
aa(lp416
I2
aI1
aI2
aF0.56830601092896171
aF0.66666666666666663
aI123
a(lp417
I2
aI17
aaa(lp418
I0
aI0
aI0
aI1
aI1
aI1
a(lp419
aa(lp420
I22
aI12
aI1
aF0.45155709342560557
aF0.6470588235294118
aI123
a(lp421
I1
aI2
aI4
aI6
aI7
aI8
aI9
aI10
aI12
aI13
aI14
aI15
aI18
aI19
aI21
aI22
aI23
aI26
aI28
aI29
aI31
aI32
aaa(lp422
I0
aI1
aI0
aF0
aF0
aI123
a(lp423
aa(lp424
I0
aI3
aI0
aF0
aF0
aI123
a(lp425
aa(lp426
I1
aI1
aI1
aF0.375
aF0.5
aI123
a(lp427
I1
aaa(lp428
I0
aI1
aI0
aF0
aF0
aI123
a(lp429
aa(lp430
I36
aI43
aI1
aF0.34714909824129042
aF0.45569620253164556
aI123
a(lp431
I1
aI2
aI3
aI4
aI6
aI9
aI10
aI11
aI15
aI17
aI18
aI19
aI20
aI21
aI23
aI24
aI25
aI26
aI28
aI29
aI30
aI33
aI34
aI35
aI36
aI37
aI39
aI41
aI44
aI46
aI47
aI48
aI49
aI51
aI52
aI54
aaa(lp432
I0
aI1
aI0
aF0
aF0
aI123
a(lp433
aa(lp434
I0
aI1
aI0
aF0
aF0
aI123
a(lp435
aa(lp436
I26
aI13
aI1
aF0.51938711694809248
aF0.66666666666666663
aI123
a(lp437
I1
aI2
aI3
aI4
aI5
aI6
aI7
aI8
aI11
aI12
aI14
aI15
aI17
aI20
aI21
aI22
aI23
aI25
aI26
aI27
aI29
aI34
aI35
aI36
aI40
aI41
aaa(lp438
I21
aI16
aI1
aF0.40659080132764341
aF0.56756756756756754
aI123
a(lp439
I1
aI4
aI5
aI6
aI7
aI8
aI10
aI11
aI13
aI14
aI15
aI16
aI20
aI22
aI23
aI25
aI28
aI29
aI30
aI31
aI32
aaa(lp440
I15
aI11
aI1
aF0.39285714285714279
aF0.57692307692307687
aI123
a(lp441
I1
aI2
aI3
aI6
aI8
aI10
aI11
aI12
aI13
aI15
aI16
aI18
aI19
aI20
aI21
aaa(lp442
I0
aI0
aI0
aI1
aI1
aI1
a(lp443
aa(lp444
I17
aI12
aI2
aF0.42423506556580859
aF0.58620689655172409
aI123
a(lp445
I2
aI4
aI8
aI10
aI11
aI13
aI16
aI17
aI19
aI21
aI26
aI28
aI29
aI32
aI33
aI36
aI37
aaa(lp446
I7
aI4
aI6
aF0.42624356775300171
aF0.63636363636363635
aI123
a(lp447
I6
aI7
aI9
aI21
aI24
aI28
aI31
aaa(lp448
I20
aI14
aI1
aF0.42226890756302521
aF0.58823529411764708
aI123
a(lp449
I1
aI2
aI3
aI4
aI5
aI6
aI7
aI9
aI10
aI11
aI13
aI14
aI15
aI16
aI18
aI20
aI21
aI23
aI24
aI25
aaa(lp450
I7
aI4
aI13
aF0.4342934293429343
aF0.63636363636363635
aI123
a(lp451
I13
aI18
aI32
aI38
aI39
aI40
aI48
aaa(lp452
I1
aI0
aI17
aF0.625
aF1
aI123
a(lp453
I17
aaa(lp454
I0
aI2
aI0
aF0
aF0
aI123
a(lp455
aa(lp456
I1
aI1
aI3
aF0.45967741935483869
aF0.5
aI123
a(lp457
I3
aaa(lp458
I0
aI0
aI0
aI1
aI1
aI1
a(lp459
aa(lp460
I10
aI8
aI1
aF0.4102564102564103
aF0.55555555555555558
aI123
a(lp461
I1
aI17
aI20
aI22
aI25
aI36
aI39
aI45
aI46
aI60
aaa(lp462
I8
aI6
aI5
aF0.46541950113378677
aF0.5714285714285714
aI123
a(lp463
I5
aI6
aI10
aI13
aI23
aI29
aI52
aI53
aaa(lp464
I12
aI6
aI4
aF0.47727272727272724
aF0.66666666666666663
aI123
a(lp465
I4
aI6
aI8
aI9
aI10
aI11
aI13
aI15
aI17
aI18
aI21
aI24
aaa(lp466
I22
aI11
aI1
aF0.5107633714191091
aF0.66666666666666663
aI123
a(lp467
I1
aI7
aI29
aI35
aI40
aI43
aI53
aI56
aI60
aI66
aI69
aI71
aI76
aI100
aI107
aI131
aI142
aI152
aI153
aI154
aI173
aI176
aaa(lp468
I2
aI7
aI13
aF0.14893617021276595
aF0.22222222222222221
aI123
a(lp469
I13
aI19
aaa(lp470
I0
aI0
aI0
aI1
aI1
aI1
a(lp471
aa(lp472
I0
aI0
aI0
aI1
aI1
aI1
a(lp473
aa(lp474
I3
aI3
aI2
aF0.34375
aF0.5
aI123
a(lp475
I2
aI3
aI4
aaa(lp476
I0
aI0
aI0
aI1
aI1
aI1
a(lp477
aa(lp478
I0
aI1
aI0
aF0
aF0
aI123
a(lp479
aa(lp480
I0
aI1
aI0
aF0
aF0
aI123
a(lp481
aa(lp482
I1
aI1
aI3
aF0.4553571428571429
aF0.5
aI123
a(lp483
I3
aaa(lp484
I0
aI0
aI0
aI1
aI1
aI1
a(lp485
aa(lp486
I3
aI5
aI9
aF0.28655660377358488
aF0.375
aI123
a(lp487
I9
aI12
aI18
aaa(lp488
I0
aI1
aI0
aF0
aF0
aI123
a(lp489
aa(lp490
I1
aI0
aI1
aF0.91666666666666674
aF1
aI123
a(lp491
I1
aaa(lp492
I0
aI1
aI0
aF0
aF0
aI123
a(lp493
aa(lp494
I40
aI42
aI2
aF0.36559528730880531
aF0.48780487804878048
aI123
a(lp495
I2
aI4
aI8
aI12
aI15
aI16
aI17
aI26
aI27
aI30
aI31
aI32
aI37
aI39
aI45
aI48
aI50
aI54
aI55
aI57
aI60
aI64
aI69
aI70
aI71
aI73
aI79
aI83
aI85
aI90
aI91
aI93
aI94
aI97
aI102
aI103
aI109
aI113
aI116
aI118
aaa(lp496
I23
aI22
aI18
aF0.36457516339869273
aF0.51111111111111107
aI123
a(lp497
I18
aI29
aI56
aI79
aI88
aI162
aI222
aI228
aI245
aI273
aI283
aI314
aI328
aI340
aI343
aI347
aI372
aI379
aI381
aI390
aI416
aI418
aI466
aaa(lp498
I1
aI0
aI3
aF0.8214285714285714
aF1
aI123
a(lp499
I3
aaa(lp500
I0
aI0
aI0
aI1
aI1
aI1
a(lp501
aa(lp502
I53
aI49
aI3
aF0.38671285822021123
aF0.51960784313725494
aI123
a(lp503
I3
aI4
aI5
aI7
aI10
aI11
aI14
aI16
aI18
aI19
aI20
aI23
aI26
aI27
aI29
aI30
aI35
aI36
aI38
aI40
aI43
aI45
aI48
aI50
aI52
aI53
aI54
aI56
aI57
aI58
aI59
aI62
aI63
aI68
aI69
aI72
aI74
aI76
aI77
aI79
aI82
aI83
aI86
aI89
aI90
aI91
aI94
aI95
aI96
aI100
aI103
aI105
aI106
aaa(lp504
I341
aI321
aI1
aF0.38557306448167472
aF0.51510574018126887
aI123
a(lp505
I1
aI2
aI3
aI4
aI5
aI6
aI9
aI10
aI11
aI12
aI13
aI14
aI15
aI16
aI19
aI20
aI21
aI22
aI23
aI24
aI25
aI26
aI27
aI28
aI29
aI30
aI31
aI32
aI33
aI34
aI35
aI37
aI39
aI40
aI41
aI42
aI43
aI44
aI45
aI46
aI47
aI48
aI49
aI50
aI51
aI52
aI53
aI54
aI55
aI56
aI57
aI58
aI59
aI60
aI61
aI62
aI64
aI67
aI68
aI71
aI72
aI73
aI74
aI75
aI76
aI77
aI78
aI79
aI81
aI82
aI83
aI84
aI85
aI86
aI87
aI88
aI89
aI90
aI91
aI92
aI93
aI94
aI95
aI96
aI97
aI98
aI99
aI100
aI101
aI102
aI103
aI104
aI105
aI106
aI108
aI109
aI110
aI111
aI112
aI113
aI114
aI115
aI118
aI119
aI120
aI121
aI122
aI123
aI124
aI126
aI128
aI129
aI132
aI133
aI134
aI135
aI136
aI137
aI139
aI140
aI141
aI143
aI144
aI145
aI146
aI147
aI148
aI149
aI152
aI153
aI154
aI155
aI156
aI157
aI158
aI159
aI161
aI162
aI163
aI164
aI165
aI166
aI167
aI168
aI169
aI170
aI173
aI176
aI177
aI178
aI179
aI180
aI182
aI184
aI186
aI187
aI188
aI189
aI190
aI191
aI192
aI193
aI194
aI195
aI196
aI197
aI198
aI199
aI200
aI201
aI202
aI203
aI204
aI205
aI206
aI207
aI208
aI210
aI211
aI212
aI213
aI214
aI215
aI216
aI217
aI218
aI219
aI220
aI221
aI222
aI223
aI224
aI225
aI226
aI227
aI228
aI229
aI230
aI231
aI232
aI233
aI234
aI235
aI236
aI237
aI238
aI239
aI240
aI242
aI244
aI245
aI246
aI247
aI248
aI249
aI250
aI251
aI252
aI253
aI254
aI255
aI256
aI257
aI258
aI259
aI261
aI262
aI263
aI265
aI267
aI268
aI269
aI270
aI271
aI272
aI273
aI274
aI276
aI277
aI278
aI279
aI280
aI281
aI283
aI284
aI285
aI286
aI288
aI289
aI290
aI291
aI292
aI294
aI296
aI297
aI298
aI299
aI300
aI301
aI302
aI303
aI304
aI305
aI306
aI307
aI308
aI309
aI310
aI312
aI313
aI314
aI316
aI317
aI318
aI319
aI320
aI321
aI322
aI325
aI326
aI327
aI329
aI330
aI331
aI332
aI334
aI335
aI336
aI338
aI339
aI340
aI341
aI342
aI343
aI346
aI347
aI349
aI350
aI351
aI352
aI353
aI354
aI355
aI356
aI357
aI359
aI361
aI362
aI363
aI365
aI367
aI368
aI369
aI370
aI371
aI373
aI374
aI375
aI376
aI377
aI380
aI381
aI382
aI384
aI385
aI387
aI389
aI390
aI391
aI392
aI393
aI394
aI395
aI397
aI398
aI399
aI400
aI401
aI402
aI403
aI404
aaa(lp506
I20
aI33
aI5
aF0.29486011711125576
aF0.37735849056603776
aI123
a(lp507
I5
aI6
aI9
aI10
aI13
aI14
aI17
aI27
aI28
aI32
aI33
aI34
aI41
aI45
aI50
aI51
aI54
aI57
aI58
aI60
aaa(lp508
I19
aI17
aI2
aF0.41777286135693215
aF0.52777777777777779
aI123
a(lp509
I2
aI3
aI4
aI11
aI12
aI14
aI16
aI20
aI22
aI25
aI27
aI31
aI33
aI34
aI36
aI38
aI39
aI44
aI46
aaa(lp510
I16
aI24
aI4
aF0.30681818181818188
aF0.40000000000000002
aI123
a(lp511
I4
aI10
aI11
aI14
aI16
aI17
aI18
aI20
aI21
aI25
aI28
aI29
aI34
aI36
aI44
aI50
aaa(lp512
I2
aI1
aI1
aF0.49999999999999994
aF0.66666666666666663
aI123
a(lp513
I1
aI2
aaa(lp514
I0
aI1
aI0
aF0
aF0
aI123
a(lp515
aa(lp516
I27
aI27
aI2
aF0.37100456621004568
aF0.5
aI123
a(lp517
I2
aI3
aI4
aI5
aI6
aI7
aI10
aI11
aI12
aI13
aI14
aI17
aI18
aI19
aI20
aI21
aI22
aI23
aI24
aI25
aI29
aI32
aI35
aI36
aI37
aI38
aI39
aaa(lp518
I13
aI7
aI1
aF0.49627659574468092
aF0.65000000000000002
aI123
a(lp519
I1
aI3
aI4
aI6
aI7
aI8
aI11
aI12
aI14
aI16
aI17
aI25
aI27
aaa(lp520
I17
aI15
aI1
aF0.39653716216216217
aF0.53125
aI123
a(lp521
I1
aI2
aI3
aI4
aI5
aI6
aI7
aI8
aI9
aI10
aI12
aI14
aI15
aI16
aI17
aI19
aI20
aaa(lp522
I0
aI1
aI0
aF0
aF0
aI123
a(lp523
aa(lp524
I6
aI2
aI1
aF0.61206896551724144
aF0.75
aI123
a(lp525
I1
aI2
aI4
aI5
aI10
aI13
aaa(lp526
I0
aI0
aI0
aI1
aI1
aI1
a(lp527
aa(lp528
I2
aI4
aI20
aF0.20261437908496729
aF0.33333333333333331
aI123
a(lp529
I20
aI21
aaa(lp530
I0
aI1
aI0
aF0
aF0
aI123
a(lp531
aa(lp532
I137
aI126
aI1
aF0.39969552797668451
aF0.52091254752851712
aI123
a(lp533
I1
aI6
aI8
aI9
aI10
aI11
aI12
aI17
aI18
aI20
aI24
aI26
aI29
aI32
aI34
aI40
aI42
aI43
aI46
aI49
aI53
aI54
aI55
aI57
aI58
aI60
aI62
aI63
aI64
aI69
aI70
aI75
aI78
aI84
aI85
aI87
aI89
aI95
aI97
aI104
aI105
aI106
aI108
aI110
aI111
aI117
aI122
aI123
aI124
aI129
aI131
aI132
aI138
aI144
aI150
aI153
aI155
aI157
aI159
aI160
aI162
aI163
aI164
aI167
aI168
aI170
aI171
aI172
aI173
aI179
aI181
aI185
aI186
aI190
aI191
aI192
aI201
aI202
aI205
aI206
aI207
aI213
aI216
aI217
aI221
aI223
aI226
aI228
aI234
aI236
aI240
aI242
aI246
aI247
aI256
aI262
aI269
aI271
aI272
aI274
aI281
aI282
aI285
aI287
aI290
aI291
aI294
aI295
aI296
aI297
aI301
aI304
aI305
aI306
aI310
aI311
aI317
aI324
aI327
aI328
aI332
aI339
aI343
aI348
aI349
aI350
aI357
aI360
aI363
aI364
aI372
aI375
aI376
aI377
aI380
aI386
aI390
aaa(lp534
I77
aI76
aI1
aF0.37814814814814812
aF0.50326797385620914
aI123
a(lp535
I1
aI4
aI5
aI18
aI19
aI22
aI23
aI26
aI34
aI35
aI36
aI37
aI41
aI43
aI46
aI47
aI49
aI50
aI53
aI64
aI67
aI69
aI70
aI74
aI76
aI78
aI81
aI84
aI85
aI87
aI92
aI93
aI95
aI97
aI98
aI99
aI105
aI106
aI111
aI114
aI116
aI117
aI122
aI123
aI130
aI131
aI132
aI135
aI142
aI144
aI149
aI151
aI156
aI157
aI158
aI163
aI168
aI169
aI170
aI171
aI175
aI178
aI179
aI182
aI184
aI186
aI189
aI190
aI196
aI197
aI201
aI203
aI205
aI210
aI211
aI214
aI215
aaa(lp536
I10
aI4
aI1
aF0.58947368421052626
aF0.7142857142857143
aI123
a(lp537
I1
aI5
aI13
aI19
aI30
aI42
aI46
aI47
aI52
aI82
aaa(lp538
I0
aI1
aI0
aF0
aF0
aI123
a(lp539
aa(lp540
I0
aI1
aI0
aF0
aF0
aI123
a(lp541
aa(lp542
I153
aI145
aI1
aF0.38238633496492908
aF0.51342281879194629
aI123
a(lp543
I1
aI2
aI3
aI4
aI11
aI14
aI16
aI17
aI18
aI20
aI21
aI24
aI25
aI26
aI29
aI31
aI33
aI44
aI46
aI48
aI49
aI50
aI52
aI57
aI58
aI60
aI64
aI66
aI71
aI73
aI74
aI76
aI77
aI78
aI79
aI82
aI83
aI89
aI93
aI94
aI95
aI97
aI98
aI100
aI101
aI102
aI103
aI105
aI106
aI107
aI108
aI117
aI120
aI122
aI129
aI131
aI132
aI133
aI135
aI137
aI140
aI141
aI142
aI144
aI146
aI148
aI150
aI152
aI153
aI154
aI160
aI164
aI165
aI166
aI168
aI170
aI172
aI173
aI174
aI177
aI180
aI181
aI184
aI185
aI186
aI187
aI189
aI190
aI192
aI195
aI197
aI198
aI204
aI206
aI208
aI209
aI210
aI211
aI213
aI217
aI222
aI223
aI224
aI225
aI226
aI237
aI241
aI242
aI243
aI244
aI249
aI251
aI256
aI257
aI258
aI261
aI262
aI263
aI264
aI265
aI266
aI267
aI268
aI270
aI271
aI272
aI274
aI275
aI278
aI285
aI287
aI291
aI295
aI297
aI299
aI300
aI302
aI303
aI306
aI307
aI308
aI309
aI312
aI313
aI321
aI322
aI323
aI324
aI327
aI329
aI330
aI331
aI332
aaa(lp544
I0
aI0
aI0
aI1
aI1
aI1
a(lp545
aa(lp546
I64
aI67
aI3
aF0.37043311425888881
aF0.48854961832061067
aI123
a(lp547
I3
aI8
aI17
aI18
aI22
aI24
aI25
aI30
aI46
aI47
aI50
aI54
aI63
aI85
aI86
aI89
aI92
aI100
aI103
aI110
aI112
aI120
aI124
aI125
aI126
aI129
aI141
aI144
aI149
aI157
aI159
aI163
aI172
aI175
aI183
aI187
aI189
aI190
aI191
aI195
aI218
aI238
aI243
aI251
aI262
aI263
aI281
aI294
aI295
aI296
aI299
aI308
aI310
aI327
aI332
aI337
aI338
aI343
aI352
aI355
aI356
aI357
aI373
aI375
aaa(lp548
I23
aI20
aI4
aF0.38635785995679245
aF0.53488372093023251
aI123
a(lp549
I4
aI31
aI39
aI51
aI55
aI65
aI71
aI81
aI93
aI94
aI101
aI107
aI110
aI122
aI126
aI128
aI134
aI138
aI141
aI147
aI169
aI170
aI172
aaa(lp550
I9
aI8
aI5
aF0.42499999999999999
aF0.52941176470588236
aI123
a(lp551
I5
aI6
aI7
aI10
aI11
aI12
aI13
aI16
aI31
aaa(lp552
I73
aI61
aI1
aF0.3999018067556952
aF0.54477611940298509
aI123
a(lp553
I1
aI2
aI4
aI5
aI7
aI8
aI9
aI10
aI11
aI13
aI15
aI16
aI17
aI18
aI21
aI22
aI23
aI24
aI26
aI28
aI29
aI30
aI32
aI33
aI34
aI36
aI37
aI38
aI40
aI41
aI42
aI43
aI44
aI45
aI46
aI47
aI48
aI49
aI51
aI52
aI55
aI56
aI58
aI59
aI61
aI62
aI65
aI67
aI68
aI70
aI72
aI74
aI75
aI76
aI77
aI79
aI81
aI83
aI84
aI85
aI87
aI88
aI89
aI91
aI92
aI93
aI94
aI95
aI96
aI97
aI98
aI100
aI101
aaa(lp554
I2
aI2
aI9
aF0.34883720930232559
aF0.5
aI123
a(lp555
I9
aI18
aaa(lp556
I60
aI48
aI1
aF0.46465104560342657
aF0.55555555555555558
aI123
a(lp557
I1
aI2
aI3
aI4
aI5
aI6
aI7
aI8
aI9
aI10
aI11
aI13
aI14
aI15
aI16
aI17
aI18
aI19
aI20
aI21
aI22
aI23
aI24
aI31
aI38
aI42
aI51
aI70
aI95
aI99
aI100
aI112
aI113
aI114
aI118
aI147
aI162
aI166
aI181
aI188
aI193
aI209
aI215
aI220
aI225
aI226
aI228
aI231
aI235
aI256
aI257
aI260
aI279
aI281
aI286
aI294
aI306
aI307
aI311
aI312
aaa(lp558
I0
aI0
aI0
aI1
aI1
aI1
a(lp559
aa(lp560
I45
aI44
aI6
aF0.36780912348772665
aF0.5056179775280899
aI123
a(lp561
I6
aI14
aI24
aI26
aI27
aI36
aI43
aI46
aI49
aI58
aI59
aI64
aI71
aI74
aI75
aI77
aI79
aI80
aI82
aI87
aI91
aI95
aI97
aI98
aI108
aI117
aI129
aI134
aI150
aI153
aI155
aI163
aI172
aI179
aI187
aI192
aI194
aI196
aI197
aI202
aI205
aI207
aI208
aI213
aI218
aaa(lp562
I0
aI0
aI0
aI1
aI1
aI1
a(lp563
aa(lp564
I13
aI5
aI1
aF0.48981481481481476
aF0.72222222222222221
aI123
a(lp565
I1
aI2
aI3
aI5
aI6
aI8
aI10
aI11
aI12
aI17
aI18
aI19
aI20
aaa(lp566
I11
aI12
aI1
aF0.36340294419719271
aF0.47826086956521741
aI123
a(lp567
I1
aI8
aI9
aI22
aI24
aI35
aI37
aI40
aI53
aI55
aI57
aaa(lp568
I2
aI0
aI2
aF0.9375
aF1
aI123
a(lp569
I2
aI5
aaa(lp570
I19
aI20
aI1
aF0.37628205128205128
aF0.48717948717948717
aI123
a(lp571
I1
aI2
aI3
aI5
aI8
aI10
aI11
aI12
aI13
aI15
aI16
aI17
aI18
aI19
aI20
aI22
aI23
aI26
aI28
aaa(lp572
I0
aI1
aI0
aF0
aF0
aI123
a(lp573
aa(lp574
I6
aI3
aI7
aF0.46743295019157083
aF0.66666666666666663
aI123
a(lp575
I7
aI17
aI19
aI37
aI39
aI40
aaa(lp576
I5
aI2
aI1
aF0.51098901098901095
aF0.7142857142857143
aI123
a(lp577
I1
aI2
aI5
aI6
aI7
aaa(lp578
I1
aI1
aI3
aF0.46951219512195125
aF0.5
aI123
a(lp579
I3
aaa(lp580
I0
aI0
aI0
aI1
aI1
aI1
a(lp581
aa(lp582
I0
aI1
aI0
aF0
aF0
aI123
a(lp583
aa(lp584
I93
aI102
aI1
aF0.36129713423831072
aF0.47692307692307695
aI123
a(lp585
I1
aI2
aI3
aI4
aI5
aI6
aI7
aI10
aI12
aI13
aI14
aI15
aI16
aI17
aI18
aI19
aI20
aI23
aI25
aI27
aI28
aI29
aI30
aI32
aI33
aI35
aI37
aI38
aI39
aI40
aI41
aI42
aI44
aI46
aI47
aI48
aI49
aI50
aI53
aI54
aI55
aI56
aI58
aI59
aI62
aI64
aI65
aI66
aI67
aI68
aI69
aI71
aI72
aI73
aI74
aI75
aI76
aI77
aI79
aI80
aI81
aI82
aI84
aI85
aI86
aI87
aI88
aI89
aI90
aI91
aI92
aI93
aI95
aI98
aI99
aI100
aI103
aI105
aI107
aI108
aI109
aI110
aI111
aI112
aI113
aI114
aI115
aI116
aI117
aI118
aI119
aI120
aI121
aaa(lp586
I21
aI28
aI4
aF0.32643057222889149
aF0.42857142857142855
aI123
a(lp587
I4
aI6
aI7
aI8
aI13
aI17
aI18
aI22
aI23
aI24
aI28
aI30
aI31
aI32
aI33
aI34
aI35
aI37
aI38
aI40
aI41
aaa(lp588
I9
aI8
aI1
aF0.41152362584378011
aF0.52941176470588236
aI123
a(lp589
I1
aI5
aI6
aI15
aI33
aI37
aI46
aI50
aI56
aaa(lp590
I22
aI23
aI1
aF0.39644444444444443
aF0.48888888888888887
aI123
a(lp591
I1
aI2
aI3
aI4
aI5
aI8
aI9
aI11
aI13
aI19
aI24
aI34
aI35
aI36
aI45
aI47
aI50
aI52
aI54
aI58
aI60
aI65
aaa(lp592
I8
aI2
aI1
aF0.56363636363636371
aF0.80000000000000004
aI123
a(lp593
I1
aI2
aI4
aI6
aI8
aI9
aI12
aI14
aaa(lp594
I2
aI1
aI4
aF0.44444444444444442
aF0.66666666666666663
aI123
a(lp595
I4
aI5
aaa(lp596
I0
aI0
aI0
aI1
aI1
aI1
a(lp597
aa(lp598
I6
aI4
aI2
aF0.43749999999999994
aF0.59999999999999998
aI123
a(lp599
I2
aI3
aI4
aI5
aI7
aI8
aaa(lp600
I9
aI14
aI1
aF0.28689064558629773
aF0.39130434782608697
aI123
a(lp601
I1
aI5
aI6
aI17
aI19
aI22
aI30
aI31
aI32
aaa(lp602
I0
aI0
aI0
aI1
aI1
aI1
a(lp603
aa(lp604
I11
aI13
aI2
aF0.3643707482993197
aF0.45833333333333331
aI123
a(lp605
I2
aI3
aI4
aI5
aI6
aI11
aI13
aI14
aI18
aI19
aI21
aaa(lp606
I8
aI6
aI1
aF0.4285714285714286
aF0.5714285714285714
aI123
a(lp607
I1
aI3
aI4
aI5
aI8
aI10
aI11
aI12
aaa(lp608
I5
aI6
aI1
aF0.3111888111888112
aF0.45454545454545453
aI123
a(lp609
I1
aI4
aI5
aI6
aI7
aaa(lp610
I0
aI1
aI0
aF0
aF0
aI123
a(lp611
aa(lp612
I3
aI4
aI2
aF0.30952380952380953
aF0.42857142857142855
aI123
a(lp613
I2
aI3
aI4
aaa(lp614
I0
aI1
aI0
aF0
aF0
aI123
a(lp615
aa(lp616
I159
aI161
aI1
aF0.3745567152917505
aF0.49687500000000001
aI123
a(lp617
I1
aI3
aI4
aI5
aI6
aI9
aI10
aI11
aI12
aI15
aI16
aI17
aI18
aI19
aI22
aI23
aI30
aI31
aI33
aI34
aI35
aI36
aI37
aI38
aI39
aI40
aI41
aI42
aI43
aI44
aI47
aI48
aI49
aI51
aI52
aI53
aI54
aI56
aI60
aI61
aI65
aI67
aI69
aI70
aI73
aI74
aI78
aI79
aI80
aI81
aI82
aI83
aI84
aI85
aI87
aI89
aI93
aI94
aI95
aI98
aI99
aI100
aI101
aI102
aI103
aI104
aI105
aI109
aI110
aI112
aI113
aI114
aI115
aI116
aI117
aI118
aI119
aI122
aI123
aI124
aI125
aI126
aI127
aI128
aI130
aI133
aI134
aI135
aI138
aI139
aI141
aI142
aI143
aI144
aI147
aI148
aI149
aI150
aI151
aI153
aI154
aI155
aI156
aI158
aI159
aI160
aI161
aI165
aI167
aI168
aI173
aI174
aI176
aI177
aI178
aI179
aI181
aI183
aI184
aI185
aI187
aI188
aI190
aI191
aI192
aI193
aI194
aI195
aI196
aI197
aI199
aI200
aI201
aI202
aI203
aI204
aI205
aI207
aI208
aI209
aI210
aI211
aI212
aI213
aI214
aI215
aI219
aI222
aI223
aI225
aI231
aI232
aI233
aI237
aI238
aI239
aI240
aI242
aI243
aaa(lp618
I0
aI0
aI0
aI1
aI1
aI1
a(lp619
aa(lp620
I25
aI17
aI2
aF0.4358878968253968
aF0.59523809523809523
aI123
a(lp621
I2
aI3
aI5
aI7
aI8
aI10
aI12
aI21
aI22
aI23
aI24
aI26
aI29
aI30
aI31
aI32
aI34
aI35
aI37
aI39
aI43
aI44
aI45
aI46
aI47
aaa(lp622
I0
aI3
aI0
aF0
aF0
aI123
a(lp623
aa(lp624
I0
aI1
aI0
aF0
aF0
aI123
a(lp625
aa(lp626
I8
aI11
aI1
aF0.33157894736842108
aF0.42105263157894735
aI123
a(lp627
I1
aI2
aI3
aI4
aI7
aI11
aI13
aI14
aaa(lp628
I1
aI1
aI2
aF0.37500000000000006
aF0.5
aI123
a(lp629
I2
aaa(lp630
I0
aI0
aI0
aI1
aI1
aI1
a(lp631
aa(lp632
I0
aI1
aI0
aF0
aF0
aI123
a(lp633
aa(lp634
I0
aI1
aI0
aF0
aF0
aI123
a(lp635
aa(lp636
I38
aI36
aI1
aF0.39819056344480069
aF0.51351351351351349
aI123
a(lp637
I1
aI2
aI3
aI5
aI6
aI7
aI9
aI10
aI11
aI12
aI14
aI16
aI17
aI19
aI20
aI21
aI23
aI25
aI26
aI28
aI29
aI30
aI33
aI34
aI36
aI37
aI38
aI40
aI41
aI42
aI45
aI46
aI47
aI48
aI49
aI51
aI52
aI53
aaa(lp638
I1
aI4
aI21
aF0.13593750000000002
aF0.20000000000000001
aI123
a(lp639
I21
aaa(lp640
I0
aI0
aI0
aI1
aI1
aI1
a(lp641
aa(lp642
I0
aI0
aI0
aI1
aI1
aI1
a(lp643
aa(lp644
I0
aI0
aI0
aI1
aI1
aI1
a(lp645
aa(lp646
I0
aI1
aI0
aF0
aF0
aI123
a(lp647
aasS'ttf'
p648
(lp649
I1
aI0
aI0
aI2
aI3
aI1
aI0
aI4
aI0
aI3
aI1
aI0
aI1
aI0
aI1
aI0
aI14
aI10
aI0
aI1
aI2
aI0
aI1
aI0
aI4
aI6
aI0
aI2
aI0
aI0
aI0
aI5
aI0
aI1
aI0
aI2
aI0
aI1
aI2
aI2
aI0
aI0
aI0
aI2
aI0
aI1
aI8
aI10
aI8
aI1
aI0
aI4
aI3
aI0
aI0
aI0
aI0
aI13
aI0
aI4
aI0
aI0
aI19
aI0
aI3
aI0
aI5
aI2
aI0
aI7
aI3
aI2
aI2
aI7
aI1
aI0
aI4
aI1
aI1
aI2
aI1
aI0
aI4
aI0
aI5
aI1
aI0
aI3
aI1
aI0
aI4
aI11
aI0
aI1
aI1
aI0
aI2
aI4
aI2
aI15
aI0
aI0
aI9
aI0
aI1
aI0
aI4
aI0
aI1
aI3
aI3
aI0
aI14
aI1
aI0
aI1
aI0
aI5
aI0
aI4
aI0
aI1
aI1
aI1
aI1
aI0
aI1
aI1
aI1
aI2
aI4
aI0
aI1
aI1
aI1
aI2
aI1
aI2
aI0
aI1
aI2
aI1
aI2
aI1
aI1
aI2
aI0
aI7
aI0
aI1
aI0
aI0
aI3
aI1
aI0
aI3
aI1
aI2
aI0
aI2
aI2
aI0
aI10
aI0
aI2
aI6
aI1
aI2
aI13
aI2
aI3
aI0
aI1
aI1
aI1
aI1
aI4
aI8
aI0
aI2
aI0
aI4
aI1
aI7
aI0
aI4
aI1
aI3
aI2
aI3
aI0
aI1
aI4
aI1
aI4
aI5
aI1
aI0
aI2
aI0
aI0
aI3
aI1
aI0
aI2
aI0
aI1
aI0
aI0
aI1
aI0
aI1
aI0
aI0
aI1
aI1
aI1
aI0
aI2
aI6
aI1
aI13
aI17
aI0
aI3
aI0
aI1
aI5
aI4
aI1
aI13
aI0
aI0
aI2
aI0
aI0
aI0
aI3
aI0
aI9
aI0
aI1
aI0
aI2
aI18
aI3
aI0
aI3
aI1
aI5
aI2
aI4
aI1
aI0
aI2
aI1
aI1
aI0
aI1
aI0
aI20
aI0
aI1
aI1
aI1
aI0
aI0
aI1
aI0
aI3
aI4
aI5
aI1
aI9
aI1
aI0
aI6
aI0
aI1
aI1
aI2
aI1
aI0
aI7
aI1
aI3
aI0
aI0
aI1
aI4
aI1
aI1
aI1
aI4
aI0
aI2
aI1
aI0
aI2
aI1
aI1
aI0
aI2
aI0
aI1
aI0
aI2
aI0
aI0
aI1
aI2
aI0
aI0
aI0
aI1
aI21
aI0
aI0
aI0
aI0
asS'missed'
p650
(lp651
I64
aI1
aI1
aI11
aI115
aI54
aI0
aI29
aI1
aI8
aI14
aI1
aI44
aI1
aI17
aI1
aI33
aI26
aI1
aI3
aI8
aI0
aI0
aI1
aI15
aI0
aI1
aI3
aI1
aI1
aI1
aI26
aI1
aI4
aI0
aI0
aI1
aI6
aI6
aI6
aI1
aI1
aI1
aI1
aI0
aI16
aI30
aI1
aI24
aI0
aI0
aI9
aI0
aI0
aI0
aI0
aI0
aI10
aI0
aI4
aI0
aI1
aI42
aI0
aI16
aI0
aI30
aI58
aI1
aI9
aI2
aI15
aI14
aI15
aI19
aI1
aI39
aI3
aI3
aI2
aI3
aI0
aI8
aI1
aI3
aI3
aI0
aI5
aI2
aI1
aI30
aI14
aI0
aI16
aI3
aI1
aI32
aI28
aI2
aI2
aI0
aI0
aI22
aI1
aI9
aI1
aI7
aI1
aI26
aI13
aI5
aI2
aI13
aI1
aI1
aI3
aI0
aI0
aI1
aI11
aI1
aI9
aI9
aI11
aI3
aI1
aI10
aI130
aI42
aI42
aI53
aI0
aI15
aI6
aI6
aI9
aI35
aI9
aI0
aI4
aI16
aI12
aI74
aI4
aI5
aI18
aI1
aI8
aI1
aI2
aI0
aI1
aI53
aI2
aI1
aI7
aI8
aI4
aI1
aI12
aI21
aI1
aI61
aI1
aI11
aI7
aI5
aI151
aI6
aI23
aI29
aI1
aI71
aI2
aI12
aI25
aI16
aI76
aI0
aI192
aI0
aI39
aI13
aI18
aI0
aI11
aI12
aI40
aI6
aI34
aI1
aI19
aI9
aI15
aI0
aI1
aI0
aI0
aI9
aI0
aI0
aI2
aI3
aI0
aI1
aI0
aI12
aI1
aI3
aI1
aI1
aI43
aI1
aI1
aI13
aI16
aI11
aI0
aI12
aI4
aI14
aI4
aI0
aI2
aI1
aI0
aI8
aI6
aI6
aI11
aI7
aI0
aI0
aI3
aI0
aI1
aI1
aI1
aI0
aI5
aI1
aI0
aI1
aI42
aI22
aI0
aI0
aI49
aI321
aI33
aI17
aI24
aI1
aI1
aI27
aI7
aI15
aI1
aI2
aI0
aI4
aI1
aI126
aI76
aI4
aI1
aI1
aI145
aI0
aI67
aI20
aI8
aI61
aI2
aI48
aI0
aI44
aI0
aI5
aI12
aI0
aI20
aI1
aI3
aI2
aI1
aI0
aI1
aI102
aI28
aI8
aI23
aI2
aI1
aI0
aI4
aI14
aI0
aI13
aI6
aI6
aI1
aI4
aI1
aI161
aI0
aI17
aI3
aI1
aI11
aI1
aI0
aI1
aI1
aI36
aI4
aI0
aI0
aI0
aI1
asS'scenarios'
p652
(lp653
S'2015-02-14T16:13:00'
p654
aS'2015-02-14T16:54:00'
p655
aS'2015-02-20T16:18:00'
p656
aS'2015-02-24T16:28:00'
p657
aS'2015-02-25T13:29:00'
p658
aS'2015-02-26T12:09:00'
p659
aS'2015-02-27T11:40:00'
p660
aS'2015-02-28T13:23:00'
p661
aS'2015-02-28T16:38:00'
p662
aS'2015-03-04T11:13:00'
p663
aS'2015-03-04T16:07:00'
p664
aS'2015-03-05T13:33:00'
p665
aS'2015-03-07T17:15:00'
p666
aS'2015-03-08T09:50:00'
p667
aS'2015-03-12T13:08:00'
p668
aS'2015-03-12T14:34:00'
p669
aS'2015-03-18T16:01:00'
p670
aS'2015-03-19T14:52:00'
p671
aS'2015-03-20T14:11:00'
p672
aS'2015-03-20T16:48:00'
p673
aS'2015-03-21T15:37:00'
p674
aS'2015-03-22T09:08:00'
p675
aS'2015-03-24T08:42:00'
p676
aS'2015-03-24T08:49:00'
p677
aS'2015-03-27T08:14:00'
p678
aS'2015-03-27T21:45:00'
p679
aS'2015-03-28T16:39:00'
p680
aS'2015-03-31T16:42:00'
p681
aS'2015-04-01T16:30:00'
p682
aS'2015-04-02T13:40:00'
p683
aS'2015-04-03T09:54:00'
p684
aS'2015-04-08T12:56:00'
p685
aS'2015-04-08T17:01:00'
p686
aS'2015-04-10T14:06:00'
p687
aS'2015-04-10T14:16:00'
p688
aS'2015-04-15T11:19:00'
p689
aS'2015-04-15T11:45:00'
p690
aS'2015-04-16T14:03:00'
p691
aS'2015-04-17T11:56:00'
p692
aS'2015-04-18T11:17:00'
p693
aS'2015-04-18T16:19:00'
p694
aS'2015-04-29T11:29:00'
p695
aS'2015-05-05T12:46:00'
p696
aS'2015-05-27T09:47:00'
p697
aS'2015-05-27T11:17:00'
p698
aS'2015-06-02T13:21:00'
p699
aS'2015-06-02T17:06:00'
p700
aS'2015-06-03T16:04:00'
p701
aS'2015-06-04T15:56:00'
p702
aS'2015-06-05T15:50:00'
p703
aS'2015-06-05T16:30:00'
p704
aS'2015-06-09T06:58:00'
p705
aS'2015-06-09T14:36:00'
p706
aS'2015-06-10T13:31:00'
p707
aS'2015-06-10T15:16:00'
p708
aS'2015-06-11T16:29:00'
p709
aS'2015-06-12T09:29:00'
p710
aS'2015-06-13T16:15:00'
p711
aS'2015-06-13T16:15:00'
p712
aS'2015-06-16T11:24:00'
p713
aS'2015-06-16T12:54:00'
p714
aS'2015-06-18T09:32:00'
p715
aS'2015-08-08T13:37:00'
p716
aS'2015-08-08T13:38:00'
p717
aS'2015-08-12T16:00:00'
p718
aS'2015-08-12T16:00:00'
p719
aS'2015-08-13T17:37:00'
p720
aS'2015-08-14T17:08:00'
p721
aS'2015-08-15T16:15:00'
p722
aS'2015-08-18T08:32:00'
p723
aS'2015-08-18T17:46:00'
p724
aS'2015-08-19T15:41:00'
p725
aS'2015-08-20T14:43:00'
p726
aS'2015-08-21T14:13:00'
p727
aS'2015-08-22T13:35:00'
p728
aS'2015-08-22T15:02:00'
p729
aS'2015-08-25T13:00:00'
p730
aS'2015-08-26T12:44:00'
p731
aS'2015-08-27T11:35:00'
p732
aS'2015-08-28T11:04:00'
p733
aS'2015-08-29T08:16:00'
p734
aS'2015-08-29T15:46:00'
p735
aS'2015-09-01T12:48:00'
p736
aS'2015-09-01T15:00:00'
p737
aS'2015-09-02T15:33:00'
p738
aS'2015-09-03T15:29:00'
p739
aS'2015-09-04T14:21:00'
p740
aS'2015-09-09T13:12:00'
p741
aS'2015-09-10T11:01:00'
p742
aS'2015-09-10T16:15:00'
p743
aS'2015-09-15T11:15:00'
p744
aS'2015-09-16T11:13:00'
p745
aS'2015-09-17T10:59:00'
p746
aS'2015-09-17T16:25:00'
p747
aS'2015-09-18T16:24:00'
p748
aS'2015-09-19T12:46:00'
p749
aS'2015-09-22T08:56:00'
p750
aS'2015-09-23T08:48:00'
p751
aS'2015-09-23T16:10:00'
p752
aS'2015-09-24T15:43:00'
p753
aS'2015-09-25T15:20:00'
p754
aS'2015-09-26T07:29:00'
p755
aS'2015-10-03T14:34:00'
p756
aS'2015-10-03T14:35:00'
p757
aS'2015-10-07T11:59:00'
p758
aS'2015-10-07T12:34:00'
p759
aS'2015-10-24T16:31:00'
p760
aS'2015-10-24T17:31:00'
p761
aS'2015-10-27T13:38:00'
p762
aS'2015-10-28T13:21:00'
p763
aS'2015-10-29T08:44:00'
p764
aS'2015-10-29T16:12:00'
p765
aS'2015-10-30T15:29:00'
p766
aS'2015-10-31T14:53:00'
p767
aS'2015-10-31T17:12:00'
p768
aS'2015-11-03T10:08:00'
p769
aS'2015-11-03T14:28:00'
p770
aS'2015-11-05T08:59:00'
p771
aS'2015-11-05T09:02:00'
p772
aS'2015-11-06T15:14:00'
p773
aS'2015-11-07T13:48:00'
p774
aS'2015-11-10T09:06:00'
p775
aS'2015-11-11T09:03:00'
p776
aS'2015-11-12T08:55:00'
p777
aS'2015-11-13T08:50:00'
p778
aS'2015-11-13T09:04:00'
p779
aS'2015-11-17T08:28:00'
p780
aS'2015-11-18T08:20:00'
p781
aS'2015-11-19T08:18:00'
p782
aS'2015-11-20T07:10:00'
p783
aS'2015-11-20T17:52:00'
p784
aS'2015-11-21T17:33:00'
p785
aS'2015-11-24T07:43:00'
p786
aS'2015-11-25T07:23:00'
p787
aS'2015-11-25T16:54:00'
p788
aS'2015-11-26T14:32:00'
p789
aS'2015-11-27T14:03:00'
p790
aS'2015-11-28T14:03:00'
p791
aS'2015-11-28T15:03:00'
p792
aS'2015-12-01T09:34:00'
p793
aS'2015-12-01T15:53:00'
p794
aS'2015-12-02T12:09:00'
p795
aS'2015-12-03T10:49:00'
p796
aS'2015-12-04T06:47:00'
p797
aS'2015-12-04T15:27:00'
p798
aS'2015-12-05T15:27:00'
p799
aS'2015-12-05T15:31:00'
p800
aS'2015-12-08T07:59:00'
p801
aS'2015-12-08T15:22:00'
p802
aS'2015-12-10T10:43:00'
p803
aS'2015-12-10T15:28:00'
p804
aS'2015-12-12T10:08:00'
p805
aS'2015-12-15T08:43:00'
p806
aS'2015-12-16T08:37:00'
p807
aS'2015-12-16T15:14:00'
p808
aS'2015-12-17T13:46:00'
p809
aS'2015-12-18T12:06:00'
p810
aS'2015-12-19T08:22:00'
p811
aS'2015-12-19T14:09:00'
p812
aS'2016-01-05T08:10:00'
p813
aS'2016-01-06T08:04:00'
p814
aS'2016-01-06T13:51:00'
p815
aS'2016-01-09T06:37:00'
p816
aS'2016-01-09T15:37:00'
p817
aS'2016-01-12T07:09:00'
p818
aS'2016-01-12T14:16:00'
p819
aS'2016-01-13T13:55:00'
p820
aS'2016-01-14T13:25:00'
p821
aS'2016-01-14T20:20:00'
p822
aS'2016-01-15T15:50:00'
p823
aS'2016-01-16T11:51:00'
p824
aS'2016-01-16T16:51:00'
p825
aS'2016-01-19T07:16:00'
p826
aS'2016-01-19T11:27:00'
p827
aS'2016-01-20T08:55:00'
p828
aS'2016-01-21T08:40:00'
p829
aS'2016-01-22T08:38:00'
p830
aS'2016-01-23T08:31:00'
p831
aS'2016-01-23T16:40:00'
p832
aS'2016-01-26T08:30:00'
p833
aS'2016-01-26T20:29:00'
p834
aS'2016-01-28T15:00:00'
p835
aS'2016-01-29T14:22:00'
p836
aS'2016-01-30T14:16:00'
p837
aS'2016-01-30T16:42:00'
p838
aS'2016-02-02T10:33:00'
p839
aS'2016-02-03T10:13:00'
p840
aS'2016-02-04T09:32:00'
p841
aS'2016-02-05T09:24:00'
p842
aS'2016-02-06T09:20:00'
p843
aS'2016-02-06T15:32:00'
p844
aS'2016-02-09T06:45:00'
p845
aS'2016-02-09T20:45:00'
p846
aS'2016-02-10T17:11:00'
p847
aS'2016-02-11T14:11:00'
p848
aS'2016-02-12T08:24:00'
p849
aS'2016-02-12T16:02:00'
p850
aS'2016-02-13T13:46:00'
p851
aS'2016-02-16T14:06:00'
p852
aS'2016-02-17T12:36:00'
p853
aS'2016-02-18T07:57:00'
p854
aS'2016-02-18T14:27:00'
p855
aS'2016-02-19T11:43:00'
p856
aS'2016-02-20T07:23:00'
p857
aS'2016-02-24T16:37:00'
p858
aS'2016-02-24T16:45:00'
p859
aS'2016-02-26T10:59:00'
p860
aS'2016-02-27T07:05:00'
p861
aS'2016-03-01T09:24:00'
p862
aS'2016-03-02T07:39:00'
p863
aS'2016-03-02T11:42:00'
p864
aS'2016-03-04T13:12:00'
p865
aS'2016-03-05T11:51:00'
p866
aS'2016-03-05T13:52:00'
p867
aS'2016-03-08T09:11:00'
p868
aS'2016-03-08T13:46:00'
p869
aS'2016-03-09T12:47:00'
p870
aS'2016-03-10T11:21:00'
p871
aS'2016-03-15T07:02:00'
p872
aS'2016-03-15T15:17:00'
p873
aS'2016-03-16T12:42:00'
p874
aS'2016-03-17T11:21:00'
p875
aS'2016-03-18T08:37:00'
p876
aS'2016-03-18T11:26:00'
p877
aS'2016-03-19T11:05:00'
p878
aS'2016-03-19T14:16:00'
p879
aS'2016-03-22T07:18:00'
p880
aS'2016-03-23T07:14:00'
p881
aS'2016-03-23T10:38:00'
p882
aS'2016-03-24T10:38:00'
p883
aS'2016-03-25T08:47:00'
p884
aS'2016-03-25T14:17:00'
p885
aS'2016-03-31T10:56:00'
p886
aS'2016-04-01T08:33:00'
p887
aS'2016-04-01T14:28:00'
p888
aS'2016-04-02T11:24:00'
p889
aS'2016-04-07T10:44:00'
p890
aS'2016-04-12T13:42:00'
p891
aS'2016-04-12T14:20:00'
p892
aS'2016-04-14T10:40:00'
p893
aS'2016-04-14T11:55:00'
p894
aS'2016-04-16T10:29:00'
p895
aS'2016-04-16T11:43:00'
p896
aS'2016-05-03T11:59:00'
p897
aS'2016-05-04T11:46:00'
p898
aS'2016-05-05T11:42:00'
p899
aS'2016-05-05T13:12:00'
p900
aS'2016-05-10T09:28:00'
p901
aS'2016-05-11T08:28:00'
p902
aS'2016-05-11T15:49:00'
p903
aS'2016-05-12T15:36:00'
p904
aS'2016-05-13T15:19:00'
p905
aS'2016-05-14T12:03:00'
p906
aS'2016-05-14T15:21:00'
p907
aS'2016-05-17T08:09:00'
p908
aS'2016-05-18T07:36:00'
p909
aS'2016-05-18T13:19:00'
p910
aS'2016-05-19T09:19:00'
p911
aS'2016-05-25T09:27:00'
p912
aS'2016-05-25T11:54:00'
p913
aS'2016-06-17T09:32:00'
p914
aS'2016-06-17T10:51:00'
p915
aS'2016-06-28T11:54:00'
p916
aS'2016-06-29T11:53:00'
p917
aS'2016-06-30T10:57:00'
p918
aS'2016-07-01T10:27:00'
p919
aS'2016-07-01T14:04:00'
p920
aS'2016-08-10T08:04:00'
p921
aS'2016-08-10T16:04:00'
p922
aS'2016-08-16T09:49:00'
p923
aS'2016-08-16T16:36:00'
p924
aS'2016-08-17T16:19:00'
p925
aS'2016-08-18T13:11:00'
p926
aS'2016-08-19T11:39:00'
p927
aS'2016-08-20T10:59:00'
p928
aS'2016-08-20T14:11:00'
p929
aS'2016-08-23T06:52:00'
p930
aS'2016-08-23T16:44:00'
p931
aS'2016-08-24T15:07:00'
p932
aS'2016-08-25T13:45:00'
p933
aS'2016-08-26T07:11:00'
p934
aS'2016-08-26T17:05:00'
p935
aS'2016-08-27T14:23:00'
p936
aS'2016-08-30T15:36:00'
p937
aS'2016-08-31T14:49:00'
p938
aS'2016-09-01T14:41:00'
p939
aS'2016-09-02T13:59:00'
p940
aS'2016-09-03T16:12:00'
p941
aS'2016-09-06T07:50:00'
p942
aS'2016-09-06T15:41:00'
p943
aS'2016-09-07T14:37:00'
p944
aS'2016-09-08T11:58:00'
p945
aS'2016-09-09T11:39:00'
p946
aS'2016-09-10T10:54:00'
p947
aS'2016-09-10T13:40:00'
p948
aS'2016-09-13T07:11:00'
p949
aS'2016-09-13T11:39:00'
p950
aS'2016-09-14T09:20:00'
p951
aS'2016-09-15T10:59:00'
p952
aS'2016-09-16T10:25:00'
p953
aS'2016-09-16T14:21:00'
p954
aS'2016-09-17T13:14:00'
p955
aS'2016-09-20T09:36:00'
p956
aS'2016-09-20T13:55:00'
p957
aS'2016-09-23T15:43:00'
p958
aS'2016-09-24T14:29:00'
p959
aS'2016-09-27T07:07:00'
p960
aS'2016-09-27T15:06:00'
p961
aS'2016-09-28T13:37:00'
p962
aS'2016-09-30T10:22:00'
p963
aS'2016-10-01T09:33:00'
p964
aS'2016-10-01T12:47:00'
p965
aS'2016-10-04T15:40:00'
p966
aS'2016-10-05T08:36:00'
p967
aS'2016-10-06T09:22:00'
p968
aS'2016-10-07T07:21:00'
p969
aS'2016-10-07T11:19:00'
p970
aS'2016-10-20T13:21:00'
p971
aS'2016-10-20T13:21:00'
p972
aS'2016-10-26T15:59:00'
p973
asS'detected'
p974
(lp975
I67
aI0
aI0
aI16
aI124
aI51
aI0
aI17
aI0
aI4
aI14
aI0
aI40
aI0
aI18
aI0
aI39
aI17
aI0
aI2
aI10
aI0
aI1
aI0
aI19
aI1
aI0
aI2
aI0
aI0
aI0
aI24
aI0
aI6
aI0
aI1
aI0
aI9
aI7
aI4
aI0
aI0
aI0
aI2
aI0
aI17
aI26
aI2
aI11
aI1
aI0
aI16
aI2
aI0
aI0
aI0
aI0
aI12
aI0
aI4
aI0
aI0
aI48
aI0
aI23
aI0
aI26
aI47
aI0
aI6
aI8
aI12
aI27
aI19
aI18
aI0
aI41
aI8
aI3
aI1
aI3
aI0
aI6
aI0
aI5
aI3
aI0
aI3
aI3
aI0
aI20
aI18
aI0
aI18
aI8
aI0
aI35
aI32
aI1
aI2
aI0
aI0
aI22
aI0
aI12
aI0
aI11
aI0
aI16
aI21
aI7
aI0
aI11
aI1
aI0
aI1
aI0
aI1
aI0
aI12
aI0
aI13
aI9
aI10
aI4
aI0
aI11
aI112
aI35
aI47
aI57
aI0
aI20
aI10
aI6
aI14
aI49
aI13
aI0
aI9
aI15
aI11
aI67
aI4
aI8
aI16
aI0
aI24
aI0
aI9
aI0
aI0
aI48
aI9
aI0
aI5
aI10
aI5
aI0
aI18
aI19
aI0
aI46
aI0
aI19
aI8
aI9
aI143
aI4
aI9
aI23
aI0
aI73
aI1
aI11
aI26
aI25
aI74
aI0
aI189
aI0
aI33
aI31
aI17
aI0
aI14
aI4
aI39
aI9
aI22
aI0
aI23
aI22
aI16
aI1
aI8
aI4
aI0
aI17
aI0
aI0
aI1
aI9
aI0
aI2
aI0
aI22
aI0
aI0
aI1
aI0
aI36
aI0
aI0
aI26
aI21
aI15
aI0
aI17
aI7
aI20
aI7
aI1
aI0
aI1
aI0
aI10
aI8
aI12
aI22
aI2
aI0
aI0
aI3
aI0
aI0
aI0
aI1
aI0
aI3
aI0
aI1
aI0
aI40
aI23
aI1
aI0
aI53
aI341
aI20
aI19
aI16
aI2
aI0
aI27
aI13
aI17
aI0
aI6
aI0
aI2
aI0
aI137
aI77
aI10
aI0
aI0
aI153
aI0
aI64
aI23
aI9
aI73
aI2
aI60
aI0
aI45
aI0
aI13
aI11
aI2
aI19
aI0
aI6
aI5
aI1
aI0
aI0
aI93
aI21
aI9
aI22
aI8
aI2
aI0
aI6
aI9
aI0
aI11
aI8
aI5
aI0
aI3
aI0
aI159
aI0
aI25
aI0
aI0
aI8
aI1
aI0
aI0
aI0
aI38
aI1
aI0
aI0
aI0
aI0
asS'criterion'
p976
S'gini'
p977
sS'rewardfun'
p978
S'failcount'
p979
sS'env'
p980
S'iofrol'
p981
sS'min_samples_split'
p982
I2
sS'hidden_size'
p983
I0
sS'napfd'
p984
(lp985
F0.39082107614969275
aF0
aF0
aF0.44222222222222224
aF0.39486422183936337
aF0.35320284697508897
aI1
aF0.26501568803227249
aF0
aF0.26250000000000001
aF0.37500000000000006
aF0
aF0.35825892857142855
aF0
aF0.37086834733893548
aF0
aF0.41420962806026362
aF0.30737704918032788
aF0
aF0.32000000000000001
aF0.39947089947089953
aI1
aF0.75
aF0
aF0.4293168880455408
aF0.6071428571428571
aF0
aF0.30909090909090914
aF0
aF0
aF0
aF0.36041666666666661
aF0
aF0.46666666666666667
aI1
aF0.85000000000000009
aF0
aF0.45555555555555555
aF0.38663967611336031
aF0.29090909090909095
aF0
aF0
aF0
aF0.44444444444444442
aI1
aF0.37759387351778656
aF0.35365615224191865
aF0.44166666666666665
aF0.23656462585034016
aF0.75
aI1
aF0.46160919540229883
aF0.78125
aI1
aI1
aI1
aI1
aF0.42167962149374788
aI1
aF0.39204545454545453
aI1
aF0
aF0.41488502720730208
aI1
aF0.46445798425996448
aI1
aF0.35188923395445137
aF0.33768349445041179
aF0
aF0.29999999999999999
aF0.58974358974358976
aF0.29799914857386117
aF0.50278530563083412
aF0.41081252644942873
aF0.34496314496314501
aF0
aF0.37835477941176471
aF0.51515151515151525
aF0.37500000000000006
aF0.20833333333333331
aF0.37500000000000006
aI1
aF0.30519480519480519
aF0
aF0.40885416666666669
aF0.41666666666666669
aI1
aF0.26339285714285715
aF0.44999999999999996
aF0
aF0.30069105691056913
aF0.39980065666041276
aI1
aF0.3955182072829132
aF0.52561983471074381
aF0
aF0.37711360142807554
aF0.39960435212660733
aF0.20833333333333331
aF0.34469696969696972
aI1
aI1
aF0.36684880509186985
aF0
aF0.42857142857142849
aF0
aF0.4646057347670251
aF0
aF0.30122448979591837
aF0.48571071488085321
aF0.46770833333333334
aF0
aF0.31326452599388377
aF0.41666666666666669
aF0
aF0.22500000000000001
aI1
aF0.59090909090909083
aF0
aF0.31159420289855072
aF0
aF0.40019762845849804
aF0.38157894736842107
aF0.36281179138321989
aF0.4081632653061224
aF0
aF0.3928571428571429
aF0.35543380691491011
aF0.33672189879086428
aF0.40760101198005799
aF0.40284090909090908
aI1
aF0.45408708938120695
aF0.47585227272727271
aF0.39583333333333331
aF0.4145962732919255
aF0.43506117724867727
aF0.42488193624557263
aI1
aF0.56373626373626373
aF0.34803427419354838
aF0.36670480549199086
aF0.35510345836075163
aF0.40909090909090906
aF0.47435897435897439
aF0.3529411764705882
aF0
aF0.48226351351351349
aF0
aF0.62440191387559807
aI1
aF0
aF0.36608112424145639
aF0.48347107438016534
aF0
aF0.35037878787878785
aF0.40909090909090917
aF0.36928104575163401
aF0
aF0.42173913043478262
aF0.340491452991453
aF0
aF0.31561188284130698
aF0
aF0.4294871794871794
aF0.39918699186991868
aF0.44302721088435376
aF0.36771828984758459
aF0.28730158730158728
aF0.22540509259259259
aF0.35215256797583078
aF0
aF0.37110487891737887
aF0.27777777777777779
aF0.36389413988657848
aF0.37195484254307781
aF0.40779748706577978
aF0.37131578947368427
aI1
aF0.3702541715964261
aI1
aF0.31999331806032838
aF0.49466046002190583
aF0.39837662337662338
aI1
aF0.40437956204379566
aF0.20945945945945946
aF0.36651323360184118
aF0.46699669966996699
aF0.30972558514931392
aF0
aF0.39723590585659557
aF0.4699322978892872
aF0.38330170777988615
aF0.85416666666666674
aF0.52020202020202011
aF0.75
aI1
aF0.4086538461538462
aI1
aI1
aF0.19444444444444442
aF0.53009259259259267
aI1
aF0.56830601092896171
aI1
aF0.45155709342560557
aF0
aF0
aF0.375
aF0
aF0.34714909824129042
aF0
aF0
aF0.51938711694809248
aF0.40659080132764341
aF0.39285714285714279
aI1
aF0.42423506556580859
aF0.42624356775300171
aF0.42226890756302521
aF0.4342934293429343
aF0.625
aF0
aF0.45967741935483869
aI1
aF0.4102564102564103
aF0.46541950113378677
aF0.47727272727272724
aF0.5107633714191091
aF0.14893617021276595
aI1
aI1
aF0.34375
aI1
aF0
aF0
aF0.4553571428571429
aI1
aF0.28655660377358488
aF0
aF0.91666666666666674
aF0
aF0.36559528730880531
aF0.36457516339869273
aF0.8214285714285714
aI1
aF0.38671285822021123
aF0.38557306448167472
aF0.29486011711125576
aF0.41777286135693215
aF0.30681818181818188
aF0.49999999999999994
aF0
aF0.37100456621004568
aF0.49627659574468092
aF0.39653716216216217
aF0
aF0.61206896551724144
aI1
aF0.20261437908496729
aF0
aF0.39969552797668451
aF0.37814814814814812
aF0.58947368421052626
aF0
aF0
aF0.38238633496492908
aI1
aF0.37043311425888881
aF0.38635785995679245
aF0.42499999999999999
aF0.3999018067556952
aF0.34883720930232559
aF0.46465104560342657
aI1
aF0.36780912348772665
aI1
aF0.48981481481481476
aF0.36340294419719271
aF0.9375
aF0.37628205128205128
aF0
aF0.46743295019157083
aF0.51098901098901095
aF0.46951219512195125
aI1
aF0
aF0.36129713423831072
aF0.32643057222889149
aF0.41152362584378011
aF0.39644444444444443
aF0.56363636363636371
aF0.44444444444444442
aI1
aF0.43749999999999994
aF0.28689064558629773
aI1
aF0.3643707482993197
aF0.4285714285714286
aF0.3111888111888112
aF0
aF0.30952380952380953
aF0
aF0.3745567152917505
aI1
aF0.4358878968253968
aF0
aF0
aF0.33157894736842108
aF0.37500000000000006
aI1
aF0
aF0
aF0.39819056344480069
aF0.13593750000000002
aI1
aI1
aI1
aF0
asS'rewards'
p986
(lp987
cnumpy.core.multiarray
scalar
p988
(cnumpy
dtype
p989
(S'f8'
I0
I1
tRp990
(I3
S'<'
NNNI-1
I-1
I0
tbS'\x00\x00\x00\x00\x00\xc0P@'
tRp991
ag988
(g990
S'\x00\x00\x00\x00\x00\x00\x00\x00'
tRp992
ag988
(g990
S'\x00\x00\x00\x00\x00\x00\x00\x00'
tRp993
ag988
(g990
S'\x00\x00\x00\x00\x00\x000@'
tRp994
ag988
(g990
S'\x00\x00\x00\x00\x00\x00_@'
tRp995
ag988
(g990
S'\x00\x00\x00\x00\x00\x80I@'
tRp996
ag988
(g990
S'\x00\x00\x00\x00\x00\x00\x00\x00'
tRp997
ag988
(g990
S'\x00\x00\x00\x00\x00\x001@'
tRp998
ag988
(g990
S'\x00\x00\x00\x00\x00\x00\x00\x00'
tRp999
ag988
(g990
S'\x00\x00\x00\x00\x00\x00\x10@'
tRp1000
ag988
(g990
S'\x00\x00\x00\x00\x00\x00,@'
tRp1001
ag988
(g990
S'\x00\x00\x00\x00\x00\x00\x00\x00'
tRp1002
ag988
(g990
S'\x00\x00\x00\x00\x00\x00D@'
tRp1003
ag988
(g990
S'\x00\x00\x00\x00\x00\x00\x00\x00'
tRp1004
ag988
(g990
S'\x00\x00\x00\x00\x00\x002@'
tRp1005
ag988
(g990
S'\x00\x00\x00\x00\x00\x00\x00\x00'
tRp1006
ag988
(g990
S'\x00\x00\x00\x00\x00\x80C@'
tRp1007
ag988
(g990
S'\x00\x00\x00\x00\x00\x001@'
tRp1008
ag988
(g990
S'\x00\x00\x00\x00\x00\x00\x00\x00'
tRp1009
ag988
(g990
S'\x00\x00\x00\x00\x00\x00\x00@'
tRp1010
ag988
(g990
S'\x00\x00\x00\x00\x00\x00$@'
tRp1011
ag988
(g990
S'\x00\x00\x00\x00\x00\x00\x00\x00'
tRp1012
ag988
(g990
S'\x00\x00\x00\x00\x00\x00\xf0?'
tRp1013
ag988
(g990
S'\x00\x00\x00\x00\x00\x00\x00\x00'
tRp1014
ag988
(g990
S'\x00\x00\x00\x00\x00\x003@'
tRp1015
ag988
(g990
S'\x00\x00\x00\x00\x00\x00\xf0?'
tRp1016
ag988
(g990
S'\x00\x00\x00\x00\x00\x00\x00\x00'
tRp1017
ag988
(g990
S'\x00\x00\x00\x00\x00\x00\x00@'
tRp1018
ag988
(g990
S'\x00\x00\x00\x00\x00\x00\x00\x00'
tRp1019
ag988
(g990
S'\x00\x00\x00\x00\x00\x00\x00\x00'
tRp1020
ag988
(g990
S'\x00\x00\x00\x00\x00\x00\x00\x00'
tRp1021
ag988
(g990
S'\x00\x00\x00\x00\x00\x008@'
tRp1022
ag988
(g990
S'\x00\x00\x00\x00\x00\x00\x00\x00'
tRp1023
ag988
(g990
S'\x00\x00\x00\x00\x00\x00\x18@'
tRp1024
ag988
(g990
S'\x00\x00\x00\x00\x00\x00\x00\x00'
tRp1025
ag988
(g990
S'\x00\x00\x00\x00\x00\x00\xf0?'
tRp1026
ag988
(g990
S'\x00\x00\x00\x00\x00\x00\x00\x00'
tRp1027
ag988
(g990
S'\x00\x00\x00\x00\x00\x00"@'
tRp1028
ag988
(g990
S'\x00\x00\x00\x00\x00\x00\x1c@'
tRp1029
ag988
(g990
S'\x00\x00\x00\x00\x00\x00\x10@'
tRp1030
ag988
(g990
S'\x00\x00\x00\x00\x00\x00\x00\x00'
tRp1031
ag988
(g990
S'\x00\x00\x00\x00\x00\x00\x00\x00'
tRp1032
ag988
(g990
S'\x00\x00\x00\x00\x00\x00\x00\x00'
tRp1033
ag988
(g990
S'\x00\x00\x00\x00\x00\x00\x00@'
tRp1034
ag988
(g990
S'\x00\x00\x00\x00\x00\x00\x00\x00'
tRp1035
ag988
(g990
S'\x00\x00\x00\x00\x00\x001@'
tRp1036
ag988
(g990
S'\x00\x00\x00\x00\x00\x00:@'
tRp1037
ag988
(g990
S'\x00\x00\x00\x00\x00\x00\x00@'
tRp1038
ag988
(g990
S'\x00\x00\x00\x00\x00\x00&@'
tRp1039
ag988
(g990
S'\x00\x00\x00\x00\x00\x00\xf0?'
tRp1040
ag988
(g990
S'\x00\x00\x00\x00\x00\x00\x00\x00'
tRp1041
ag988
(g990
S'\x00\x00\x00\x00\x00\x000@'
tRp1042
ag988
(g990
S'\x00\x00\x00\x00\x00\x00\x00@'
tRp1043
ag988
(g990
S'\x00\x00\x00\x00\x00\x00\x00\x00'
tRp1044
ag988
(g990
S'\x00\x00\x00\x00\x00\x00\x00\x00'
tRp1045
ag988
(g990
S'\x00\x00\x00\x00\x00\x00\x00\x00'
tRp1046
ag988
(g990
S'\x00\x00\x00\x00\x00\x00\x00\x00'
tRp1047
ag988
(g990
S'\x00\x00\x00\x00\x00\x00(@'
tRp1048
ag988
(g990
S'\x00\x00\x00\x00\x00\x00\x00\x00'
tRp1049
ag988
(g990
S'\x00\x00\x00\x00\x00\x00\x10@'
tRp1050
ag988
(g990
S'\x00\x00\x00\x00\x00\x00\x00\x00'
tRp1051
ag988
(g990
S'\x00\x00\x00\x00\x00\x00\x00\x00'
tRp1052
ag988
(g990
S'\x00\x00\x00\x00\x00\x00H@'
tRp1053
ag988
(g990
S'\x00\x00\x00\x00\x00\x00\x00\x00'
tRp1054
ag988
(g990
S'\x00\x00\x00\x00\x00\x007@'
tRp1055
ag988
(g990
S'\x00\x00\x00\x00\x00\x00\x00\x00'
tRp1056
ag988
(g990
S'\x00\x00\x00\x00\x00\x00:@'
tRp1057
ag988
(g990
S'\x00\x00\x00\x00\x00\x80G@'
tRp1058
ag988
(g990
S'\x00\x00\x00\x00\x00\x00\x00\x00'
tRp1059
ag988
(g990
S'\x00\x00\x00\x00\x00\x00\x18@'
tRp1060
ag988
(g990
S'\x00\x00\x00\x00\x00\x00 @'
tRp1061
ag988
(g990
S'\x00\x00\x00\x00\x00\x00(@'
tRp1062
ag988
(g990
S'\x00\x00\x00\x00\x00\x00;@'
tRp1063
ag988
(g990
S'\x00\x00\x00\x00\x00\x003@'
tRp1064
ag988
(g990
S'\x00\x00\x00\x00\x00\x002@'
tRp1065
ag988
(g990
S'\x00\x00\x00\x00\x00\x00\x00\x00'
tRp1066
ag988
(g990
S'\x00\x00\x00\x00\x00\x80D@'
tRp1067
ag988
(g990
S'\x00\x00\x00\x00\x00\x00 @'
tRp1068
ag988
(g990
S'\x00\x00\x00\x00\x00\x00\x08@'
tRp1069
ag988
(g990
S'\x00\x00\x00\x00\x00\x00\xf0?'
tRp1070
ag988
(g990
S'\x00\x00\x00\x00\x00\x00\x08@'
tRp1071
ag988
(g990
S'\x00\x00\x00\x00\x00\x00\x00\x00'
tRp1072
ag988
(g990
S'\x00\x00\x00\x00\x00\x00\x18@'
tRp1073
ag988
(g990
S'\x00\x00\x00\x00\x00\x00\x00\x00'
tRp1074
ag988
(g990
S'\x00\x00\x00\x00\x00\x00\x14@'
tRp1075
ag988
(g990
S'\x00\x00\x00\x00\x00\x00\x08@'
tRp1076
ag988
(g990
S'\x00\x00\x00\x00\x00\x00\x00\x00'
tRp1077
ag988
(g990
S'\x00\x00\x00\x00\x00\x00\x08@'
tRp1078
ag988
(g990
S'\x00\x00\x00\x00\x00\x00\x08@'
tRp1079
ag988
(g990
S'\x00\x00\x00\x00\x00\x00\x00\x00'
tRp1080
ag988
(g990
S'\x00\x00\x00\x00\x00\x004@'
tRp1081
ag988
(g990
S'\x00\x00\x00\x00\x00\x002@'
tRp1082
ag988
(g990
S'\x00\x00\x00\x00\x00\x00\x00\x00'
tRp1083
ag988
(g990
S'\x00\x00\x00\x00\x00\x002@'
tRp1084
ag988
(g990
S'\x00\x00\x00\x00\x00\x00 @'
tRp1085
ag988
(g990
S'\x00\x00\x00\x00\x00\x00\x00\x00'
tRp1086
ag988
(g990
S'\x00\x00\x00\x00\x00\x80A@'
tRp1087
ag988
(g990
S'\x00\x00\x00\x00\x00\x00@@'
tRp1088
ag988
(g990
S'\x00\x00\x00\x00\x00\x00\xf0?'
tRp1089
ag988
(g990
S'\x00\x00\x00\x00\x00\x00\x00@'
tRp1090
ag988
(g990
S'\x00\x00\x00\x00\x00\x00\x00\x00'
tRp1091
ag988
(g990
S'\x00\x00\x00\x00\x00\x00\x00\x00'
tRp1092
ag988
(g990
S'\x00\x00\x00\x00\x00\x006@'
tRp1093
ag988
(g990
S'\x00\x00\x00\x00\x00\x00\x00\x00'
tRp1094
ag988
(g990
S'\x00\x00\x00\x00\x00\x00(@'
tRp1095
ag988
(g990
S'\x00\x00\x00\x00\x00\x00\x00\x00'
tRp1096
ag988
(g990
S'\x00\x00\x00\x00\x00\x00&@'
tRp1097
ag988
(g990
S'\x00\x00\x00\x00\x00\x00\x00\x00'
tRp1098
ag988
(g990
S'\x00\x00\x00\x00\x00\x000@'
tRp1099
ag988
(g990
S'\x00\x00\x00\x00\x00\x005@'
tRp1100
ag988
(g990
S'\x00\x00\x00\x00\x00\x00\x1c@'
tRp1101
ag988
(g990
S'\x00\x00\x00\x00\x00\x00\x00\x00'
tRp1102
ag988
(g990
S'\x00\x00\x00\x00\x00\x00&@'
tRp1103
ag988
(g990
S'\x00\x00\x00\x00\x00\x00\xf0?'
tRp1104
ag988
(g990
S'\x00\x00\x00\x00\x00\x00\x00\x00'
tRp1105
ag988
(g990
S'\x00\x00\x00\x00\x00\x00\xf0?'
tRp1106
ag988
(g990
S'\x00\x00\x00\x00\x00\x00\x00\x00'
tRp1107
ag988
(g990
S'\x00\x00\x00\x00\x00\x00\xf0?'
tRp1108
ag988
(g990
S'\x00\x00\x00\x00\x00\x00\x00\x00'
tRp1109
ag988
(g990
S'\x00\x00\x00\x00\x00\x00(@'
tRp1110
ag988
(g990
S'\x00\x00\x00\x00\x00\x00\x00\x00'
tRp1111
ag988
(g990
S'\x00\x00\x00\x00\x00\x00*@'
tRp1112
ag988
(g990
S'\x00\x00\x00\x00\x00\x00"@'
tRp1113
ag988
(g990
S'\x00\x00\x00\x00\x00\x00$@'
tRp1114
ag988
(g990
S'\x00\x00\x00\x00\x00\x00\x10@'
tRp1115
ag988
(g990
S'\x00\x00\x00\x00\x00\x00\x00\x00'
tRp1116
ag988
(g990
S'\x00\x00\x00\x00\x00\x00&@'
tRp1117
ag988
(g990
S'\x00\x00\x00\x00\x00\x00\\@'
tRp1118
ag988
(g990
S'\x00\x00\x00\x00\x00\x80A@'
tRp1119
ag988
(g990
S'\x00\x00\x00\x00\x00\x80G@'
tRp1120
ag988
(g990
S'\x00\x00\x00\x00\x00\x80L@'
tRp1121
ag988
(g990
S'\x00\x00\x00\x00\x00\x00\x00\x00'
tRp1122
ag988
(g990
S'\x00\x00\x00\x00\x00\x004@'
tRp1123
ag988
(g990
S'\x00\x00\x00\x00\x00\x00$@'
tRp1124
ag988
(g990
S'\x00\x00\x00\x00\x00\x00\x18@'
tRp1125
ag988
(g990
S'\x00\x00\x00\x00\x00\x00,@'
tRp1126
ag988
(g990
S'\x00\x00\x00\x00\x00\x80H@'
tRp1127
ag988
(g990
S'\x00\x00\x00\x00\x00\x00*@'
tRp1128
ag988
(g990
S'\x00\x00\x00\x00\x00\x00\x00\x00'
tRp1129
ag988
(g990
S'\x00\x00\x00\x00\x00\x00"@'
tRp1130
ag988
(g990
S'\x00\x00\x00\x00\x00\x00.@'
tRp1131
ag988
(g990
S'\x00\x00\x00\x00\x00\x00&@'
tRp1132
ag988
(g990
S'\x00\x00\x00\x00\x00\xc0P@'
tRp1133
ag988
(g990
S'\x00\x00\x00\x00\x00\x00\x10@'
tRp1134
ag988
(g990
S'\x00\x00\x00\x00\x00\x00 @'
tRp1135
ag988
(g990
S'\x00\x00\x00\x00\x00\x000@'
tRp1136
ag988
(g990
S'\x00\x00\x00\x00\x00\x00\x00\x00'
tRp1137
ag988
(g990
S'\x00\x00\x00\x00\x00\x008@'
tRp1138
ag988
(g990
S'\x00\x00\x00\x00\x00\x00\x00\x00'
tRp1139
ag988
(g990
S'\x00\x00\x00\x00\x00\x00"@'
tRp1140
ag988
(g990
S'\x00\x00\x00\x00\x00\x00\x00\x00'
tRp1141
ag988
(g990
S'\x00\x00\x00\x00\x00\x00\x00\x00'
tRp1142
ag988
(g990
S'\x00\x00\x00\x00\x00\x00H@'
tRp1143
ag988
(g990
S'\x00\x00\x00\x00\x00\x00"@'
tRp1144
ag988
(g990
S'\x00\x00\x00\x00\x00\x00\x00\x00'
tRp1145
ag988
(g990
S'\x00\x00\x00\x00\x00\x00\x14@'
tRp1146
ag988
(g990
S'\x00\x00\x00\x00\x00\x00$@'
tRp1147
ag988
(g990
S'\x00\x00\x00\x00\x00\x00\x14@'
tRp1148
ag988
(g990
S'\x00\x00\x00\x00\x00\x00\x00\x00'
tRp1149
ag988
(g990
S'\x00\x00\x00\x00\x00\x002@'
tRp1150
ag988
(g990
S'\x00\x00\x00\x00\x00\x003@'
tRp1151
ag988
(g990
S'\x00\x00\x00\x00\x00\x00\x00\x00'
tRp1152
ag988
(g990
S'\x00\x00\x00\x00\x00\x00G@'
tRp1153
ag988
(g990
S'\x00\x00\x00\x00\x00\x00\x00\x00'
tRp1154
ag988
(g990
S'\x00\x00\x00\x00\x00\x003@'
tRp1155
ag988
(g990
S'\x00\x00\x00\x00\x00\x00 @'
tRp1156
ag988
(g990
S'\x00\x00\x00\x00\x00\x00"@'
tRp1157
ag988
(g990
S'\x00\x00\x00\x00\x00\xe0a@'
tRp1158
ag988
(g990
S'\x00\x00\x00\x00\x00\x00\x10@'
tRp1159
ag988
(g990
S'\x00\x00\x00\x00\x00\x00"@'
tRp1160
ag988
(g990
S'\x00\x00\x00\x00\x00\x007@'
tRp1161
ag988
(g990
S'\x00\x00\x00\x00\x00\x00\x00\x00'
tRp1162
ag988
(g990
S'\x00\x00\x00\x00\x00@R@'
tRp1163
ag988
(g990
S'\x00\x00\x00\x00\x00\x00\xf0?'
tRp1164
ag988
(g990
S'\x00\x00\x00\x00\x00\x00&@'
tRp1165
ag988
(g990
S'\x00\x00\x00\x00\x00\x00:@'
tRp1166
ag988
(g990
S'\x00\x00\x00\x00\x00\x009@'
tRp1167
ag988
(g990
S'\x00\x00\x00\x00\x00\x80R@'
tRp1168
ag988
(g990
S'\x00\x00\x00\x00\x00\x00\x00\x00'
tRp1169
ag988
(g990
S'\x00\x00\x00\x00\x00\xa0g@'
tRp1170
ag988
(g990
S'\x00\x00\x00\x00\x00\x00\x00\x00'
tRp1171
ag988
(g990
S'\x00\x00\x00\x00\x00\x80@@'
tRp1172
ag988
(g990
S'\x00\x00\x00\x00\x00\x00?@'
tRp1173
ag988
(g990
S'\x00\x00\x00\x00\x00\x001@'
tRp1174
ag988
(g990
S'\x00\x00\x00\x00\x00\x00\x00\x00'
tRp1175
ag988
(g990
S'\x00\x00\x00\x00\x00\x00,@'
tRp1176
ag988
(g990
S'\x00\x00\x00\x00\x00\x00\x10@'
tRp1177
ag988
(g990
S'\x00\x00\x00\x00\x00\x80C@'
tRp1178
ag988
(g990
S'\x00\x00\x00\x00\x00\x00"@'
tRp1179
ag988
(g990
S'\x00\x00\x00\x00\x00\x006@'
tRp1180
ag988
(g990
S'\x00\x00\x00\x00\x00\x00\x00\x00'
tRp1181
ag988
(g990
S'\x00\x00\x00\x00\x00\x007@'
tRp1182
ag988
(g990
S'\x00\x00\x00\x00\x00\x006@'
tRp1183
ag988
(g990
S'\x00\x00\x00\x00\x00\x000@'
tRp1184
ag988
(g990
S'\x00\x00\x00\x00\x00\x00\xf0?'
tRp1185
ag988
(g990
S'\x00\x00\x00\x00\x00\x00 @'
tRp1186
ag988
(g990
S'\x00\x00\x00\x00\x00\x00\x10@'
tRp1187
ag988
(g990
S'\x00\x00\x00\x00\x00\x00\x00\x00'
tRp1188
ag988
(g990
S'\x00\x00\x00\x00\x00\x001@'
tRp1189
ag988
(g990
S'\x00\x00\x00\x00\x00\x00\x00\x00'
tRp1190
ag988
(g990
S'\x00\x00\x00\x00\x00\x00\x00\x00'
tRp1191
ag988
(g990
S'\x00\x00\x00\x00\x00\x00\xf0?'
tRp1192
ag988
(g990
S'\x00\x00\x00\x00\x00\x00"@'
tRp1193
ag988
(g990
S'\x00\x00\x00\x00\x00\x00\x00\x00'
tRp1194
ag988
(g990
S'\x00\x00\x00\x00\x00\x00\x00@'
tRp1195
ag988
(g990
S'\x00\x00\x00\x00\x00\x00\x00\x00'
tRp1196
ag988
(g990
S'\x00\x00\x00\x00\x00\x006@'
tRp1197
ag988
(g990
S'\x00\x00\x00\x00\x00\x00\x00\x00'
tRp1198
ag988
(g990
S'\x00\x00\x00\x00\x00\x00\x00\x00'
tRp1199
ag988
(g990
S'\x00\x00\x00\x00\x00\x00\xf0?'
tRp1200
ag988
(g990
S'\x00\x00\x00\x00\x00\x00\x00\x00'
tRp1201
ag988
(g990
S'\x00\x00\x00\x00\x00\x00B@'
tRp1202
ag988
(g990
S'\x00\x00\x00\x00\x00\x00\x00\x00'
tRp1203
ag988
(g990
S'\x00\x00\x00\x00\x00\x00\x00\x00'
tRp1204
ag988
(g990
S'\x00\x00\x00\x00\x00\x00:@'
tRp1205
ag988
(g990
S'\x00\x00\x00\x00\x00\x005@'
tRp1206
ag988
(g990
S'\x00\x00\x00\x00\x00\x00.@'
tRp1207
ag988
(g990
S'\x00\x00\x00\x00\x00\x00\x00\x00'
tRp1208
ag988
(g990
S'\x00\x00\x00\x00\x00\x001@'
tRp1209
ag988
(g990
S'\x00\x00\x00\x00\x00\x00\x1c@'
tRp1210
ag988
(g990
S'\x00\x00\x00\x00\x00\x004@'
tRp1211
ag988
(g990
S'\x00\x00\x00\x00\x00\x00\x1c@'
tRp1212
ag988
(g990
S'\x00\x00\x00\x00\x00\x00\xf0?'
tRp1213
ag988
(g990
S'\x00\x00\x00\x00\x00\x00\x00\x00'
tRp1214
ag988
(g990
S'\x00\x00\x00\x00\x00\x00\xf0?'
tRp1215
ag988
(g990
S'\x00\x00\x00\x00\x00\x00\x00\x00'
tRp1216
ag988
(g990
S'\x00\x00\x00\x00\x00\x00$@'
tRp1217
ag988
(g990
S'\x00\x00\x00\x00\x00\x00 @'
tRp1218
ag988
(g990
S'\x00\x00\x00\x00\x00\x00(@'
tRp1219
ag988
(g990
S'\x00\x00\x00\x00\x00\x006@'
tRp1220
ag988
(g990
S'\x00\x00\x00\x00\x00\x00\x00@'
tRp1221
ag988
(g990
S'\x00\x00\x00\x00\x00\x00\x00\x00'
tRp1222
ag988
(g990
S'\x00\x00\x00\x00\x00\x00\x00\x00'
tRp1223
ag988
(g990
S'\x00\x00\x00\x00\x00\x00\x08@'
tRp1224
ag988
(g990
S'\x00\x00\x00\x00\x00\x00\x00\x00'
tRp1225
ag988
(g990
S'\x00\x00\x00\x00\x00\x00\x00\x00'
tRp1226
ag988
(g990
S'\x00\x00\x00\x00\x00\x00\x00\x00'
tRp1227
ag988
(g990
S'\x00\x00\x00\x00\x00\x00\xf0?'
tRp1228
ag988
(g990
S'\x00\x00\x00\x00\x00\x00\x00\x00'
tRp1229
ag988
(g990
S'\x00\x00\x00\x00\x00\x00\x08@'
tRp1230
ag988
(g990
S'\x00\x00\x00\x00\x00\x00\x00\x00'
tRp1231
ag988
(g990
S'\x00\x00\x00\x00\x00\x00\xf0?'
tRp1232
ag988
(g990
S'\x00\x00\x00\x00\x00\x00\x00\x00'
tRp1233
ag988
(g990
S'\x00\x00\x00\x00\x00\x00D@'
tRp1234
ag988
(g990
S'\x00\x00\x00\x00\x00\x007@'
tRp1235
ag988
(g990
S'\x00\x00\x00\x00\x00\x00\xf0?'
tRp1236
ag988
(g990
S'\x00\x00\x00\x00\x00\x00\x00\x00'
tRp1237
ag988
(g990
S'\x00\x00\x00\x00\x00\x80J@'
tRp1238
ag988
(g990
S'\x00\x00\x00\x00\x00Pu@'
tRp1239
ag988
(g990
S'\x00\x00\x00\x00\x00\x004@'
tRp1240
ag988
(g990
S'\x00\x00\x00\x00\x00\x003@'
tRp1241
ag988
(g990
S'\x00\x00\x00\x00\x00\x000@'
tRp1242
ag988
(g990
S'\x00\x00\x00\x00\x00\x00\x00@'
tRp1243
ag988
(g990
S'\x00\x00\x00\x00\x00\x00\x00\x00'
tRp1244
ag988
(g990
S'\x00\x00\x00\x00\x00\x00;@'
tRp1245
ag988
(g990
S'\x00\x00\x00\x00\x00\x00*@'
tRp1246
ag988
(g990
S'\x00\x00\x00\x00\x00\x001@'
tRp1247
ag988
(g990
S'\x00\x00\x00\x00\x00\x00\x00\x00'
tRp1248
ag988
(g990
S'\x00\x00\x00\x00\x00\x00\x18@'
tRp1249
ag988
(g990
S'\x00\x00\x00\x00\x00\x00\x00\x00'
tRp1250
ag988
(g990
S'\x00\x00\x00\x00\x00\x00\x00@'
tRp1251
ag988
(g990
S'\x00\x00\x00\x00\x00\x00\x00\x00'
tRp1252
ag988
(g990
S'\x00\x00\x00\x00\x00 a@'
tRp1253
ag988
(g990
S'\x00\x00\x00\x00\x00@S@'
tRp1254
ag988
(g990
S'\x00\x00\x00\x00\x00\x00$@'
tRp1255
ag988
(g990
S'\x00\x00\x00\x00\x00\x00\x00\x00'
tRp1256
ag988
(g990
S'\x00\x00\x00\x00\x00\x00\x00\x00'
tRp1257
ag988
(g990
S'\x00\x00\x00\x00\x00 c@'
tRp1258
ag988
(g990
S'\x00\x00\x00\x00\x00\x00\x00\x00'
tRp1259
ag988
(g990
S'\x00\x00\x00\x00\x00\x00P@'
tRp1260
ag988
(g990
S'\x00\x00\x00\x00\x00\x007@'
tRp1261
ag988
(g990
S'\x00\x00\x00\x00\x00\x00"@'
tRp1262
ag988
(g990
S'\x00\x00\x00\x00\x00@R@'
tRp1263
ag988
(g990
S'\x00\x00\x00\x00\x00\x00\x00@'
tRp1264
ag988
(g990
S'\x00\x00\x00\x00\x00\x00N@'
tRp1265
ag988
(g990
S'\x00\x00\x00\x00\x00\x00\x00\x00'
tRp1266
ag988
(g990
S'\x00\x00\x00\x00\x00\x80F@'
tRp1267
ag988
(g990
S'\x00\x00\x00\x00\x00\x00\x00\x00'
tRp1268
ag988
(g990
S'\x00\x00\x00\x00\x00\x00*@'
tRp1269
ag988
(g990
S'\x00\x00\x00\x00\x00\x00&@'
tRp1270
ag988
(g990
S'\x00\x00\x00\x00\x00\x00\x00@'
tRp1271
ag988
(g990
S'\x00\x00\x00\x00\x00\x003@'
tRp1272
ag988
(g990
S'\x00\x00\x00\x00\x00\x00\x00\x00'
tRp1273
ag988
(g990
S'\x00\x00\x00\x00\x00\x00\x18@'
tRp1274
ag988
(g990
S'\x00\x00\x00\x00\x00\x00\x14@'
tRp1275
ag988
(g990
S'\x00\x00\x00\x00\x00\x00\xf0?'
tRp1276
ag988
(g990
S'\x00\x00\x00\x00\x00\x00\x00\x00'
tRp1277
ag988
(g990
S'\x00\x00\x00\x00\x00\x00\x00\x00'
tRp1278
ag988
(g990
S'\x00\x00\x00\x00\x00@W@'
tRp1279
ag988
(g990
S'\x00\x00\x00\x00\x00\x005@'
tRp1280
ag988
(g990
S'\x00\x00\x00\x00\x00\x00"@'
tRp1281
ag988
(g990
S'\x00\x00\x00\x00\x00\x006@'
tRp1282
ag988
(g990
S'\x00\x00\x00\x00\x00\x00 @'
tRp1283
ag988
(g990
S'\x00\x00\x00\x00\x00\x00\x00@'
tRp1284
ag988
(g990
S'\x00\x00\x00\x00\x00\x00\x00\x00'
tRp1285
ag988
(g990
S'\x00\x00\x00\x00\x00\x00\x18@'
tRp1286
ag988
(g990
S'\x00\x00\x00\x00\x00\x00"@'
tRp1287
ag988
(g990
S'\x00\x00\x00\x00\x00\x00\x00\x00'
tRp1288
ag988
(g990
S'\x00\x00\x00\x00\x00\x00&@'
tRp1289
ag988
(g990
S'\x00\x00\x00\x00\x00\x00 @'
tRp1290
ag988
(g990
S'\x00\x00\x00\x00\x00\x00\x14@'
tRp1291
ag988
(g990
S'\x00\x00\x00\x00\x00\x00\x00\x00'
tRp1292
ag988
(g990
S'\x00\x00\x00\x00\x00\x00\x08@'
tRp1293
ag988
(g990
S'\x00\x00\x00\x00\x00\x00\x00\x00'
tRp1294
ag988
(g990
S'\x00\x00\x00\x00\x00\xe0c@'
tRp1295
ag988
(g990
S'\x00\x00\x00\x00\x00\x00\x00\x00'
tRp1296
ag988
(g990
S'\x00\x00\x00\x00\x00\x009@'
tRp1297
ag988
(g990
S'\x00\x00\x00\x00\x00\x00\x00\x00'
tRp1298
ag988
(g990
S'\x00\x00\x00\x00\x00\x00\x00\x00'
tRp1299
ag988
(g990
S'\x00\x00\x00\x00\x00\x00 @'
tRp1300
ag988
(g990
S'\x00\x00\x00\x00\x00\x00\xf0?'
tRp1301
ag988
(g990
S'\x00\x00\x00\x00\x00\x00\x00\x00'
tRp1302
ag988
(g990
S'\x00\x00\x00\x00\x00\x00\x00\x00'
tRp1303
ag988
(g990
S'\x00\x00\x00\x00\x00\x00\x00\x00'
tRp1304
ag988
(g990
S'\x00\x00\x00\x00\x00\x00C@'
tRp1305
ag988
(g990
S'\x00\x00\x00\x00\x00\x00\xf0?'
tRp1306
ag988
(g990
S'\x00\x00\x00\x00\x00\x00\x00\x00'
tRp1307
ag988
(g990
S'\x00\x00\x00\x00\x00\x00\x00\x00'
tRp1308
ag988
(g990
S'\x00\x00\x00\x00\x00\x00\x00\x00'
tRp1309
ag988
(g990
S'\x00\x00\x00\x00\x00\x00\x00\x00'
tRp1310
asS'action_size'
p1311
I1
sS'durations'
p1312
(lp1313
F0.0095620155334472656
aF0.00012898445129394531
aF0.000141143798828125
aF0.0056309700012207031
aF0.071592807769775391
aF0.065248012542724609
aF0.00020313262939453125
aF0.011363983154296875
aF0.0002918243408203125
aF0.0076279640197753906
aF0.0019299983978271484
aF0.00014591217041015625
aF0.011040925979614258
aF0.0001659393310546875
aF0.010447978973388672
aF0.00013184547424316406
aF0.051870107650756836
aF0.10718202590942383
aF0.00097298622131347656
aF0.0061159133911132812
aF0.0028460025787353516
aF0.00015306472778320312
aF0.00028514862060546875
aF0.00021696090698242188
aF0.015797138214111328
aF0.0017940998077392578
aF9.6082687377929688e-05
aF0.0014410018920898438
aF0.00062799453735351562
aF0.0056970119476318359
aF0.00019001960754394531
aF0.044183015823364258
aF0.00015711784362792969
aF0.0017330646514892578
aF0.0058109760284423828
aF0.0012440681457519531
aF9.7036361694335938e-05
aF0.0023579597473144531
aF0.0023698806762695312
aF0.0070440769195556641
aF0.00015902519226074219
aF0.00011920928955078125
aF0.0001220703125
aF0.00079011917114257812
aF0.0057809352874755859
aF0.039672136306762695
aF0.034715175628662109
aF0.0044369697570800781
aF0.02738499641418457
aF0.00646209716796875
aF0.000125885009765625
aF0.0094361305236816406
aF0.0019390583038330078
aF0.00012302398681640625
aF0.0062868595123291016
aF0.0028431415557861328
aF0.000125885009765625
aF0.035048007965087891
aF0.00014090538024902344
aF0.011558055877685547
aF0.00022792816162109375
aF0.00013113021850585938
aF0.068894863128662109
aF0.00014805793762207031
aF0.026085138320922852
aF0.00025892257690429688
aF0.075293064117431641
aF0.029093027114868164
aF0.00016999244689941406
aF0.014085054397583008
aF0.0043790340423583984
aF0.018926858901977539
aF0.017744064331054688
aF0.015202045440673828
aF0.013503074645996094
aF0.00013613700866699219
aF0.014776945114135742
aF0.0030460357666015625
aF0.00056004524230957031
aF0.00821685791015625
aF0.00071501731872558594
aF0.00021386146545410156
aF0.0060429573059082031
aF0.00012707710266113281
aF0.010395050048828125
aF0.0010819435119628906
aF0.00024294853210449219
aF0.0017399787902832031
aF0.00085401535034179688
aF0.0079820156097412109
aF0.054028987884521484
aF0.059804916381835938
aF0.00031805038452148438
aF0.011437892913818359
aF0.014369010925292969
aF0.00021505355834960938
aF0.066651821136474609
aF0.036674976348876953
aF0.00060319900512695312
aF0.015836000442504883
aF0.00044083595275878906
aF0.00014209747314453125
aF0.085913181304931641
aF0.00020599365234375
aF0.013886928558349609
aF0.00011801719665527344
aF0.0067620277404785156
aF0.00015711784362792969
aF0.02212214469909668
aF0.052476167678833008
aF0.0029370784759521484
aF0.0016050338745117188
aF0.012016057968139648
aF0.00041294097900390625
aF0.0095419883728027344
aF0.00080204010009765625
aF0.00018715858459472656
aF0.00088095664978027344
aF0.00024390220642089844
aF0.012726068496704102
aF0.00028181076049804688
aF0.0026891231536865234
aF0.0023019313812255859
aF0.0023169517517089844
aF0.0094230175018310547
aF0.00013303756713867188
aF0.0024671554565429688
aF0.029152154922485352
aF0.016149997711181641
aF0.042074918746948242
aF0.034637928009033203
aF0.000164031982421875
aF0.020890951156616211
aF0.0049941539764404297
aF0.011276960372924805
aF0.0034110546112060547
aF0.016880989074707031
aF0.017144918441772461
aF0.00015711784362792969
aF0.013682126998901367
aF0.0073070526123046875
aF0.0043380260467529297
aF0.021370172500610352
aF0.0026299953460693359
aF0.015223026275634766
aF0.004528045654296875
aF0.0001049041748046875
aF0.0085821151733398438
aF0.00010704994201660156
aF0.012166976928710938
aF0.00013780593872070312
aF0.00013995170593261719
aF0.017404079437255859
aF0.0013439655303955078
aF0.010320186614990234
aF0.0076658725738525391
aF0.0025959014892578125
aF0.0020289421081542969
aF0.00015401840209960938
aF0.015692949295043945
aF0.013055086135864258
aF0.00013899803161621094
aF0.090996980667114258
aF0.000225067138671875
aF0.015098810195922852
aF0.0092339515686035156
aF0.0048460960388183594
aF0.034777164459228516
aF0.0071370601654052734
aF0.01651310920715332
aF0.073253870010375977
aF0.00015878677368164062
aF0.017181873321533203
aF0.00043988227844238281
aF0.013505935668945312
aF0.0073330402374267578
aF0.0074110031127929688
aF0.11738896369934082
aF0.00012707710266113281
aF0.12211418151855469
aF0.00030088424682617188
aF0.032649993896484375
aF0.0093219280242919922
aF0.053878068923950195
aF0.010093927383422852
aF0.018907070159912109
aF0.0043358802795410156
aF0.020848989486694336
aF0.011354923248291016
aF0.030405998229980469
aF0.00014996528625488281
aF0.0097398757934570312
aF0.0091190338134765625
aF0.0038390159606933594
aF0.012187004089355469
aF0.0025088787078857422
aF0.0013289451599121094
aF0.0001239776611328125
aF0.0051240921020507812
aF0.011584043502807617
aF0.00042080879211425781
aF0.00095009803771972656
aF0.0021569728851318359
aF0.00013399124145507812
aF0.017899990081787109
aF0.00017189979553222656
aF0.0065789222717285156
aF0.00024294853210449219
aF0.0090730190277099609
aF0.011986017227172852
aF0.00016999244689941406
aF0.012780189514160156
aF0.00024199485778808594
aF0.0001239776611328125
aF0.023885965347290039
aF0.00650787353515625
aF0.0040209293365478516
aF0.00013184547424316406
aF0.007991790771484375
aF0.01709294319152832
aF0.0048589706420898438
aF0.011435031890869141
aF0.0030438899993896484
aF0.0051629543304443359
aF0.014897823333740234
aF0.0002040863037109375
aF0.013345003128051758
aF0.013967037200927734
aF0.0049288272857666016
aF0.052142143249511719
aF0.0053908824920654297
aF0.00012993812561035156
aF0.00021719932556152344
aF0.0010209083557128906
aF0.011365890502929688
aF0.00013709068298339844
aF0.00022101402282714844
aF0.0033700466156005859
aF0.00022816658020019531
aF0.016869068145751953
aF0.00015401840209960938
aF0.00088906288146972656
aF0.00011897087097167969
aF0.026234149932861328
aF0.1153721809387207
aF0.0010988712310791016
aF0.0001220703125
aF0.023252010345458984
aF0.092229127883911133
aF0.026844024658203125
aF0.01285099983215332
aF0.011049985885620117
aF0.0005970001220703125
aF0.00015616416931152344
aF0.019093990325927734
aF0.0055429935455322266
aF0.0042469501495361328
aF0.0001430511474609375
aF0.0033180713653564453
aF0.010486125946044922
aF0.0059940814971923828
aF0.00021409988403320312
aF0.088712930679321289
aF0.049959897994995117
aF0.032212972640991211
aF0.0020909309387207031
aF0.00012707710266113281
aF0.073784112930297852
aF0.00026416778564453125
aF0.094046115875244141
aF0.040117025375366211
aF0.006793975830078125
aF0.021066904067993164
aF0.0050039291381835938
aF0.093736171722412109
aF0.00029015541076660156
aF0.046110153198242188
aF0.006671905517578125
aF0.0035459995269775391
aF0.024870872497558594
aF0.0055470466613769531
aF0.0066821575164794922
aF0.00020909309387207031
aF0.0096249580383300781
aF0.012309074401855469
aF0.004589080810546875
aF0.00015306472778320312
aF9.7036361694335938e-05
aF0.028297901153564453
aF0.022021055221557617
aF0.013801097869873047
aF0.016851186752319336
aF0.0027339458465576172
aF0.0015561580657958984
aF0.011018037796020508
aF0.0020041465759277344
aF0.0075781345367431641
aF0.00012803077697753906
aF0.0056560039520263672
aF0.013926029205322266
aF0.0016000270843505859
aF0.00036287307739257812
aF0.0012149810791015625
aF0.00011301040649414062
aF0.068933963775634766
aF0.00015306472778320312
aF0.010676860809326172
aF0.0036900043487548828
aF0.00022101402282714844
aF0.014549970626831055
aF0.00068807601928710938
aF0.00024104118347167969
aF0.0070140361785888672
aF0.00013113021850585938
aF0.025233983993530273
aF0.0071160793304443359
aF0.00013208389282226562
aF0.0011048316955566406
aF0.00023984909057617188
aF0.013010978698730469
asS'avg_precision'
p1314
(lp1315
I123
aI123
aI123
aI123
aI123
aI123
aI1
aI123
aI123
aI123
aI123
aI123
aI123
aI123
aI123
aI123
aI123
aI123
aI123
aI123
aI123
aI1
aI123
aI123
aI123
aI123
aI123
aI123
aI123
aI123
aI123
aI123
aI123
aI123
aI1
aI123
aI123
aI123
aI123
aI123
aI123
aI123
aI123
aI123
aI1
aI123
aI123
aI123
aI123
aI123
aI1
aI123
aI123
aI1
aI1
aI1
aI1
aI123
aI1
aI123
aI1
aI123
aI123
aI1
aI123
aI1
aI123
aI123
aI123
aI123
aI123
aI123
aI123
aI123
aI123
aI123
aI123
aI123
aI123
aI123
aI123
aI1
aI123
aI123
aI123
aI123
aI1
aI123
aI123
aI123
aI123
aI123
aI1
aI123
aI123
aI123
aI123
aI123
aI123
aI123
aI1
aI1
aI123
aI123
aI123
aI123
aI123
aI123
aI123
aI123
aI123
aI123
aI123
aI123
aI123
aI123
aI1
aI123
aI123
aI123
aI123
aI123
aI123
aI123
aI123
aI123
aI123
aI123
aI123
aI123
aI123
aI1
aI123
aI123
aI123
aI123
aI123
aI123
aI1
aI123
aI123
aI123
aI123
aI123
aI123
aI123
aI123
aI123
aI123
aI123
aI1
aI123
aI123
aI123
aI123
aI123
aI123
aI123
aI123
aI123
aI123
aI123
aI123
aI123
aI123
aI123
aI123
aI123
aI123
aI123
aI123
aI123
aI123
aI123
aI123
aI123
aI123
aI123
aI1
aI123
aI1
aI123
aI123
aI123
aI1
aI123
aI123
aI123
aI123
aI123
aI123
aI123
aI123
aI123
aI123
aI123
aI123
aI1
aI123
aI1
aI1
aI123
aI123
aI1
aI123
aI1
aI123
aI123
aI123
aI123
aI123
aI123
aI123
aI123
aI123
aI123
aI123
aI1
aI123
aI123
aI123
aI123
aI123
aI123
aI123
aI1
aI123
aI123
aI123
aI123
aI123
aI1
aI1
aI123
aI1
aI123
aI123
aI123
aI1
aI123
aI123
aI123
aI123
aI123
aI123
aI123
aI1
aI123
aI123
aI123
aI123
aI123
aI123
aI123
aI123
aI123
aI123
aI123
aI123
aI1
aI123
aI123
aI123
aI123
aI123
aI123
aI123
aI123
aI1
aI123
aI123
aI123
aI123
aI123
aI123
aI1
aI123
aI1
aI123
aI123
aI123
aI123
aI123
aI123
aI123
aI123
aI1
aI123
aI123
aI123
aI123
aI123
aI123
aI123
aI1
aI123
aI123
aI1
aI123
aI123
aI123
aI123
aI123
aI123
aI123
aI1
aI123
aI123
aI123
aI123
aI123
aI1
aI123
aI123
aI123
aI123
aI1
aI1
aI1
aI123
asS'step'
p1316
(lp1317
I1
aI2
aI3
aI4
aI5
aI6
aI7
aI8
aI9
aI10
aI11
aI12
aI13
aI14
aI15
aI16
aI17
aI18
aI19
aI20
aI21
aI22
aI23
aI24
aI25
aI26
aI27
aI28
aI29
aI30
aI31
aI32
aI33
aI34
aI35
aI36
aI37
aI38
aI39
aI40
aI41
aI42
aI43
aI44
aI45
aI46
aI47
aI48
aI49
aI50
aI51
aI52
aI53
aI54
aI55
aI56
aI57
aI58
aI59
aI60
aI61
aI62
aI63
aI64
aI65
aI66
aI67
aI68
aI69
aI70
aI71
aI72
aI73
aI74
aI75
aI76
aI77
aI78
aI79
aI80
aI81
aI82
aI83
aI84
aI85
aI86
aI87
aI88
aI89
aI90
aI91
aI92
aI93
aI94
aI95
aI96
aI97
aI98
aI99
aI100
aI101
aI102
aI103
aI104
aI105
aI106
aI107
aI108
aI109
aI110
aI111
aI112
aI113
aI114
aI115
aI116
aI117
aI118
aI119
aI120
aI121
aI122
aI123
aI124
aI125
aI126
aI127
aI128
aI129
aI130
aI131
aI132
aI133
aI134
aI135
aI136
aI137
aI138
aI139
aI140
aI141
aI142
aI143
aI144
aI145
aI146
aI147
aI148
aI149
aI150
aI151
aI152
aI153
aI154
aI155
aI156
aI157
aI158
aI159
aI160
aI161
aI162
aI163
aI164
aI165
aI166
aI167
aI168
aI169
aI170
aI171
aI172
aI173
aI174
aI175
aI176
aI177
aI178
aI179
aI180
aI181
aI182
aI183
aI184
aI185
aI186
aI187
aI188
aI189
aI190
aI191
aI192
aI193
aI194
aI195
aI196
aI197
aI198
aI199
aI200
aI201
aI202
aI203
aI204
aI205
aI206
aI207
aI208
aI209
aI210
aI211
aI212
aI213
aI214
aI215
aI216
aI217
aI218
aI219
aI220
aI221
aI222
aI223
aI224
aI225
aI226
aI227
aI228
aI229
aI230
aI231
aI232
aI233
aI234
aI235
aI236
aI237
aI238
aI239
aI240
aI241
aI242
aI243
aI244
aI245
aI246
aI247
aI248
aI249
aI250
aI251
aI252
aI253
aI254
aI255
aI256
aI257
aI258
aI259
aI260
aI261
aI262
aI263
aI264
aI265
aI266
aI267
aI268
aI269
aI270
aI271
aI272
aI273
aI274
aI275
aI276
aI277
aI278
aI279
aI280
aI281
aI282
aI283
aI284
aI285
aI286
aI287
aI288
aI289
aI290
aI291
aI292
aI293
aI294
aI295
aI296
aI297
aI298
aI299
aI300
aI301
aI302
aI303
aI304
aI305
aI306
aI307
aI308
aI309
aI310
aI311
aI312
aI313
aI314
aI315
aI316
aI317
aI318
aI319
aI320
asS'comparison'
p1318
(dp1319
S'heur_random'
p1320
(dp1321
g650
(lp1322
I65
aI1
aI1
aI15
aI115
aI54
aI0
aI26
aI1
aI6
aI14
aI1
aI39
aI1
aI15
aI1
aI33
aI24
aI1
aI3
aI10
aI0
aI0
aI1
aI14
aI1
aI1
aI2
aI0
aI1
aI1
aI21
aI1
aI4
aI0
aI1
aI1
aI9
aI6
aI6
aI1
aI1
aI1
aI2
aI0
aI16
aI24
aI3
aI14
aI0
aI0
aI13
aI2
aI0
aI0
aI0
aI0
aI11
aI0
aI2
aI0
aI1
aI45
aI0
aI16
aI0
aI35
aI55
aI1
aI6
aI10
aI12
aI20
aI19
aI17
aI1
aI39
aI7
aI3
aI2
aI3
aI0
aI8
aI1
aI5
aI4
aI0
aI5
aI3
aI1
aI25
aI22
aI0
aI14
aI5
aI1
aI35
aI24
aI2
aI2
aI0
aI0
aI21
aI1
aI11
aI1
aI9
aI1
aI22
aI19
aI7
aI1
aI11
aI2
aI1
aI2
aI0
aI1
aI1
aI9
aI1
aI10
aI8
aI12
aI3
aI1
aI10
aI120
aI45
aI48
aI49
aI0
aI15
aI10
aI6
aI9
aI43
aI8
aI0
aI6
aI17
aI12
aI67
aI5
aI5
aI17
aI1
aI12
aI1
aI2
aI0
aI1
aI37
aI8
aI1
aI5
aI9
aI3
aI1
aI12
aI17
aI1
aI48
aI1
aI11
aI8
aI8
aI149
aI3
aI14
aI28
aI1
aI68
aI2
aI12
aI15
aI18
aI80
aI0
aI189
aI0
aI33
aI25
aI14
aI0
aI15
aI6
aI30
aI6
aI25
aI1
aI24
aI12
aI14
aI0
aI6
aI1
aI0
aI10
aI0
aI0
aI1
aI3
aI0
aI0
aI0
aI13
aI1
aI1
aI1
aI1
aI44
aI1
aI1
aI23
aI15
aI9
aI0
aI13
aI4
aI15
aI4
aI1
aI1
aI2
aI0
aI6
aI5
aI8
aI20
aI5
aI0
aI0
aI3
aI0
aI1
aI1
aI1
aI0
aI3
aI1
aI1
aI1
aI36
aI21
aI1
aI0
aI45
aI331
aI28
aI25
aI22
aI2
aI1
aI24
aI8
aI11
aI1
aI2
aI0
aI3
aI1
aI140
aI88
aI10
aI0
aI1
aI147
aI0
aI66
aI22
aI7
aI66
aI1
aI59
aI0
aI52
aI0
aI6
aI12
aI1
aI19
aI1
aI6
aI4
aI1
aI0
aI1
aI92
aI23
aI6
aI17
aI3
aI2
aI0
aI3
aI14
aI0
aI12
aI8
aI5
aI1
aI4
aI1
aI169
aI0
aI19
aI2
aI1
aI11
aI2
aI0
aI1
aI1
aI33
aI3
aI0
aI0
aI0
aI0
asS'recall'
p1323
(lp1324
F0.50381679389312972
aF0
aF0
aF0.44444444444444442
aF0.51882845188284521
aF0.48571428571428571
aI1
aF0.43478260869565216
aF0
aF0.5
aF0.5
aF0
aF0.5357142857142857
aF0
aF0.5714285714285714
aF0
aF0.54166666666666663
aF0.44186046511627908
aF0
aF0.40000000000000002
aF0.44444444444444442
aI1
aF1
aF0
aF0.58823529411764708
aF0
aF0
aF0.59999999999999998
aF1
aF0
aF0
aF0.57999999999999996
aF0
aF0.59999999999999998
aI1
aF0
aF0
aF0.40000000000000002
aF0.53846153846153844
aF0.40000000000000002
aF0
aF0
aF0
aF0.33333333333333331
aI1
aF0.51515151515151514
aF0.5714285714285714
aF0
aF0.59999999999999998
aF1
aI1
aF0.47999999999999998
aF0
aI1
aI1
aI1
aI1
aF0.5
aI1
aF0.75
aI1
aF0
aF0.5
aI1
aF0.58974358974358976
aI1
aF0.375
aF0.47619047619047616
aF0
aF0.59999999999999998
aF0
aF0.55555555555555558
aF0.51219512195121952
aF0.44117647058823528
aF0.54054054054054057
aF0
aF0.51249999999999996
aF0.36363636363636365
aF0.5
aF0.33333333333333331
aF0.5
aI1
aF0.42857142857142855
aF0
aF0.375
aF0.33333333333333331
aI1
aF0.375
aF0.40000000000000002
aF0
aF0.5
aF0.3125
aI1
aF0.58823529411764708
aF0.54545454545454541
aF0
aF0.47761194029850745
aF0.59999999999999998
aF0.33333333333333331
aF0.5
aI1
aI1
aF0.52272727272727271
aF0
aF0.47619047619047616
aF0
aF0.5
aF0
aF0.47619047619047616
aF0.44117647058823528
aF0.41666666666666669
aF0.5
aF0.54166666666666663
aF0
aF0
aF0.5
aI1
aF0
aF0
aF0.60869565217391308
aF0
aF0.54545454545454541
aF0.55555555555555558
aF0.42857142857142855
aF0.5714285714285714
aF0
aF0.52380952380952384
aF0.50413223140495866
aF0.41558441558441561
aF0.4606741573033708
aF0.55454545454545456
aI1
aF0.5714285714285714
aF0.375
aF0.5
aF0.60869565217391308
aF0.48809523809523808
aF0.63636363636363635
aI1
aF0.53846153846153844
aF0.45161290322580644
aF0.47826086956521741
aF0.52482269503546097
aF0.375
aF0.61538461538461542
aF0.5
aF0
aF0.625
aF0
aF0.81818181818181823
aI1
aF0
aF0.63366336633663367
aF0.27272727272727271
aF0
aF0.58333333333333337
aF0.5
aF0.66666666666666663
aF0
aF0.59999999999999998
aF0.57499999999999996
aF0
aF0.55140186915887845
aF0
aF0.6333333333333333
aF0.46666666666666667
aF0.42857142857142855
aF0.49319727891156462
aF0.69999999999999996
aF0.5625
aF0.46153846153846156
aF0
aF0.52777777777777779
aF0.33333333333333331
aF0.47826086956521741
aF0.70588235294117652
aF0.56097560975609762
aF0.46666666666666667
aI1
aF0.50393700787401574
aI1
aF0.54166666666666663
aF0.43181818181818182
aF0.59999999999999998
aI1
aF0.40000000000000002
aF0.625
aF0.620253164556962
aF0.59999999999999998
aF0.5535714285714286
aF0
aF0.42857142857142855
aF0.61290322580645162
aF0.54838709677419351
aF1
aF0.33333333333333331
aF0.75
aI1
aF0.61538461538461542
aI1
aI1
aF0.66666666666666663
aF0.75
aI1
aF1
aI1
aF0.61764705882352944
aF0
aF0.66666666666666663
aF0.5
aF0
aF0.44303797468354428
aF0
aF0
aF0.41025641025641024
aF0.59459459459459463
aF0.65384615384615385
aI1
aF0.55172413793103448
aF0.63636363636363635
aF0.55882352941176472
aF0.63636363636363635
aF0
aF0.5
aF0
aI1
aF0.66666666666666663
aF0.6428571428571429
aF0.55555555555555558
aF0.39393939393939392
aF0.44444444444444442
aI1
aI1
aF0.5
aI1
aF0
aF0
aF0.5
aI1
aF0.625
aF0
aF0
aF0
aF0.56097560975609762
aF0.53333333333333333
aF0
aI1
aF0.55882352941176472
aF0.5
aF0.47169811320754718
aF0.30555555555555558
aF0.45000000000000001
aF0.33333333333333331
aF0
aF0.55555555555555558
aF0.59999999999999998
aF0.65625
aF0
aF0.75
aI1
aF0.5
aF0
aF0.46768060836501901
aF0.42483660130718953
aF0.2857142857142857
aF1
aF0
aF0.50671140939597314
aI1
aF0.49618320610687022
aF0.48837209302325579
aF0.58823529411764708
aF0.5074626865671642
aF0.75
aF0.45370370370370372
aI1
aF0.4157303370786517
aI1
aF0.66666666666666663
aF0.47826086956521741
aF0.5
aF0.51282051282051277
aF0
aF0.33333333333333331
aF0.42857142857142855
aF0.5
aI1
aF0
aF0.52820512820512822
aF0.53061224489795922
aF0.6470588235294118
aF0.62222222222222223
aF0.69999999999999996
aF0.33333333333333331
aI1
aF0.69999999999999996
aF0.39130434782608697
aI1
aF0.5
aF0.42857142857142855
aF0.54545454545454541
aF0
aF0.42857142857142855
aF0
aF0.47187499999999999
aI1
aF0.54761904761904767
aF0.33333333333333331
aF0
aF0.42105263157894735
aF0
aI1
aF0
aF0
aF0.55405405405405406
aF0.40000000000000002
aI1
aI1
aI1
aF1
asg1312
(lp1325
F0.0084118843078613281
aF5.0067901611328125e-05
aF2.193450927734375e-05
aF0.0020468235015869141
aF0.025473117828369141
aF0.023411989212036133
aF2.384185791015625e-05
aF0.0047121047973632812
aF2.288818359375e-05
aF0.00089406967163085938
aF0.00016903877258300781
aF2.2172927856445312e-05
aF0.0039269924163818359
aF4.291534423828125e-05
aF0.0021021366119384766
aF1.7881393432617188e-05
aF0.019169092178344727
aF0.025399923324584961
aF0.00032210350036621094
aF5.6028366088867188e-05
aF0.00022196769714355469
aF1.8835067749023438e-05
aF0.00010514259338378906
aF1.811981201171875e-05
aF0.0041952133178710938
aF0.00055384635925292969
aF2.193450927734375e-05
aF0.00041079521179199219
aF0.00025796890258789062
aF5.0067901611328125e-05
aF0.00011801719665527344
aF0.015999078750610352
aF2.193450927734375e-05
aF0.00059795379638671875
aF3.1948089599609375e-05
aF0.00048494338989257812
aF1.9788742065429688e-05
aF0.00089097023010253906
aF0.00067305564880371094
aF0.00042891502380371094
aF6.6995620727539062e-05
aF1.9073486328125e-05
aF1.7881393432617188e-05
aF0.0003108978271484375
aF2.384185791015625e-05
aF0.014626979827880859
aF0.0035278797149658203
aF0.0016870498657226562
aF0.010007143020629883
aF0.00021600723266601562
aF1.811981201171875e-05
aF0.0035190582275390625
aF0.00076079368591308594
aF4.100799560546875e-05
aF4.6014785766601562e-05
aF0.00102996826171875
aF1.9073486328125e-05
aF0.0036189556121826172
aF2.002716064453125e-05
aF0.0018870830535888672
aF1.811981201171875e-05
aF2.002716064453125e-05
aF0.025784015655517578
aF2.3126602172851562e-05
aF0.0019960403442382812
aF2.09808349609375e-05
aF0.027775049209594727
aF0.010651826858520508
aF4.6014785766601562e-05
aF0.0025830268859863281
aF0.0015850067138671875
aF0.0068838596343994141
aF0.0066039562225341797
aF0.0057609081268310547
aF0.0023360252380371094
aF1.9788742065429688e-05
aF0.0054571628570556641
aF0.0010571479797363281
aF4.100799560546875e-05
aF0.00037789344787597656
aF0.00034999847412109375
aF1.811981201171875e-05
aF0.0021610260009765625
aF1.811981201171875e-05
aF0.0010762214660644531
aF0.00039196014404296875
aF1.71661376953125e-05
aF0.00049901008605957031
aF0.00022101402282714844
aF2.5987625122070312e-05
aF0.020007133483886719
aF0.021804094314575195
aF0.0001430511474609375
aF0.0043611526489257812
aF0.0024039745330810547
aF2.09808349609375e-05
aF0.025228023529052734
aF0.013791799545288086
aF0.00016999244689941406
aF0.0029160976409912109
aF0.00012302398681640625
aF2.288818359375e-05
aF0.032684087753295898
aF2.5033950805664062e-05
aF0.0015270709991455078
aF4.6968460083007812e-05
aF0.0025899410247802734
aF2.4080276489257812e-05
aF0.0076730251312255859
aF0.016538858413696289
aF0.00026607513427734375
aF0.00041794776916503906
aF0.0044031143188476562
aF0.00027203559875488281
aF3.4093856811523438e-05
aF0.00018787384033203125
aF1.8835067749023438e-05
aF6.7949295043945312e-05
aF1.7881393432617188e-05
aF0.0016341209411621094
aF1.9073486328125e-05
aF0.00095701217651367188
aF0.00065922737121582031
aF0.0008869171142578125
aF0.00028395652770996094
aF2.002716064453125e-05
aF0.00094008445739746094
aF0.011042118072509766
aF0.0059609413146972656
aF0.012471914291381836
aF0.01288294792175293
aF6.3180923461914062e-05
aF0.0078151226043701172
aF0.0016520023345947266
aF0.00081896781921386719
aF0.0011630058288574219
aF0.0059828758239746094
aF0.0061869621276855469
aF4.291534423828125e-05
aF0.0016341209411621094
aF0.0025370121002197266
aF0.0016109943389892578
aF0.0083739757537841797
aF0.00086283683776855469
aF0.001605987548828125
aF0.0017600059509277344
aF1.9073486328125e-05
aF0.0030779838562011719
aF2.288818359375e-05
aF0.00091695785522460938
aF2.09808349609375e-05
aF2.09808349609375e-05
aF0.0064108371734619141
aF0.00058317184448242188
aF5.2928924560546875e-05
aF0.0026800632476806641
aF0.00095605850219726562
aF0.00083398818969726562
aF2.193450927734375e-05
aF0.0019860267639160156
aF0.0048661231994628906
aF2.09808349609375e-05
aF0.034474849700927734
aF2.5987625122070312e-05
aF0.0017049312591552734
aF0.0034489631652832031
aF0.0018270015716552734
aF0.013324975967407227
aF0.0027201175689697266
aF0.0023951530456542969
aF0.027903079986572266
aF6.008148193359375e-05
aF0.0064239501953125
aF0.00021696090698242188
aF0.0010340213775634766
aF0.0027251243591308594
aF0.0025670528411865234
aF0.045207023620605469
aF4.9114227294921875e-05
aF0.040392160415649414
aF2.2172927856445312e-05
aF0.01220703125
aF0.0035471916198730469
aF0.020591974258422852
aF3.0040740966796875e-05
aF0.0059368610382080078
aF0.0014631748199462891
aF0.0078101158142089844
aF0.0041551589965820312
aF0.0073220729827880859
aF1.9073486328125e-05
aF0.0036370754241943359
aF0.0033738613128662109
aF0.0013139247894287109
aF0.00018000602722167969
aF0.00096678733825683594
aF0.00057506561279296875
aF4.3153762817382812e-05
aF0.0018951892852783203
aF0.00036501884460449219
aF0.00011706352233886719
aF0.00022101402282714844
aF0.00084018707275390625
aF4.291534423828125e-05
aF0.0026431083679199219
aF2.1219253540039062e-05
aF0.0021789073944091797
aF2.8133392333984375e-05
aF0.0031919479370117188
aF0.00017714500427246094
aF0.00011706352233886719
aF0.0055329799652099609
aF2.5033950805664062e-05
aF2.002716064453125e-05
aF0.0036149024963378906
aF0.0022749900817871094
aF0.0015671253204345703
aF2.002716064453125e-05
aF0.0029790401458740234
aF0.0022919178009033203
aF0.0016400814056396484
aF0.0050611495971679688
aF0.00033402442932128906
aF0.0019719600677490234
aF0.0013680458068847656
aF2.002716064453125e-05
aF0.0048170089721679688
aF0.0050189495086669922
aF0.001773834228515625
aF0.015561103820800781
aF0.0019440650939941406
aF2.002716064453125e-05
aF1.7881393432617188e-05
aF0.00033593177795410156
aF2.5033950805664062e-05
aF4.291534423828125e-05
aF1.9073486328125e-05
aF0.0010960102081298828
aF1.7881393432617188e-05
aF0.0021991729736328125
aF2.193450927734375e-05
aF0.000286102294921875
aF2.002716064453125e-05
aF0.0096259117126464844
aF0.039731025695800781
aF8.8930130004882812e-05
aF2.002716064453125e-05
aF0.0089309215545654297
aF0.06964421272277832
aF0.0060570240020751953
aF0.0045249462127685547
aF0.0040650367736816406
aF0.00020503997802734375
aF4.7922134399414062e-05
aF0.0031399726867675781
aF0.0019810199737548828
aF0.0016779899597167969
aF2.193450927734375e-05
aF0.0013520717620849609
aF6.008148193359375e-05
aF0.0022339820861816406
aF2.002716064453125e-05
aF0.033148050308227539
aF0.01885986328125
aF0.0080940723419189453
aF0.00079107284545898438
aF2.09808349609375e-05
aF0.028935909271240234
aF2.5033950805664062e-05
aF0.031983852386474609
aF0.015236854553222656
aF0.0025930404663085938
aF0.00792694091796875
aF0.0017161369323730469
aF0.03191685676574707
aF2.4080276489257812e-05
aF0.017619132995605469
aF0.0023150444030761719
aF0.0012497901916503906
aF0.0054998397827148438
aF0.0019910335540771484
aF0.0025639533996582031
aF2.288818359375e-05
aF0.0035870075225830078
aF0.0005130767822265625
aF0.0016970634460449219
aF4.2200088500976562e-05
aF1.9073486328125e-05
aF0.010653018951416016
aF0.0048091411590576172
aF0.0050959587097167969
aF0.0062160491943359375
aF0.00098085403442382812
aF0.00043892860412597656
aF2.8848648071289062e-05
aF0.00056910514831542969
aF0.0028059482574462891
aF1.7881393432617188e-05
aF0.0020592212677001953
aF0.0011341571807861328
aF0.0006160736083984375
aF4.4107437133789062e-05
aF0.00037097930908203125
aF2.3126602172851562e-05
aF0.023078203201293945
aF2.5987625122070312e-05
aF0.003993988037109375
aF0.0013201236724853516
aF2.002716064453125e-05
aF0.0013339519500732422
aF0.00036191940307617188
aF1.9073486328125e-05
aF0.0025320053100585938
aF4.291534423828125e-05
aF0.0050630569458007812
aF0.0026600360870361328
aF4.482269287109375e-05
aF0.00012803077697753906
aF1.7881393432617188e-05
aF0.00081396102905273438
asg1314
(lp1326
I123
aI123
aI123
aI123
aI123
aI123
aI1
aI123
aI123
aI123
aI123
aI123
aI123
aI123
aI123
aI123
aI123
aI123
aI123
aI123
aI123
aI1
aI123
aI123
aI123
aI123
aI123
aI123
aI123
aI123
aI123
aI123
aI123
aI123
aI1
aI123
aI123
aI123
aI123
aI123
aI123
aI123
aI123
aI123
aI1
aI123
aI123
aI123
aI123
aI123
aI1
aI123
aI123
aI1
aI1
aI1
aI1
aI123
aI1
aI123
aI1
aI123
aI123
aI1
aI123
aI1
aI123
aI123
aI123
aI123
aI123
aI123
aI123
aI123
aI123
aI123
aI123
aI123
aI123
aI123
aI123
aI1
aI123
aI123
aI123
aI123
aI1
aI123
aI123
aI123
aI123
aI123
aI1
aI123
aI123
aI123
aI123
aI123
aI123
aI123
aI1
aI1
aI123
aI123
aI123
aI123
aI123
aI123
aI123
aI123
aI123
aI123
aI123
aI123
aI123
aI123
aI1
aI123
aI123
aI123
aI123
aI123
aI123
aI123
aI123
aI123
aI123
aI123
aI123
aI123
aI123
aI1
aI123
aI123
aI123
aI123
aI123
aI123
aI1
aI123
aI123
aI123
aI123
aI123
aI123
aI123
aI123
aI123
aI123
aI123
aI1
aI123
aI123
aI123
aI123
aI123
aI123
aI123
aI123
aI123
aI123
aI123
aI123
aI123
aI123
aI123
aI123
aI123
aI123
aI123
aI123
aI123
aI123
aI123
aI123
aI123
aI123
aI123
aI1
aI123
aI1
aI123
aI123
aI123
aI1
aI123
aI123
aI123
aI123
aI123
aI123
aI123
aI123
aI123
aI123
aI123
aI123
aI1
aI123
aI1
aI1
aI123
aI123
aI1
aI123
aI1
aI123
aI123
aI123
aI123
aI123
aI123
aI123
aI123
aI123
aI123
aI123
aI1
aI123
aI123
aI123
aI123
aI123
aI123
aI123
aI1
aI123
aI123
aI123
aI123
aI123
aI1
aI1
aI123
aI1
aI123
aI123
aI123
aI1
aI123
aI123
aI123
aI123
aI123
aI123
aI123
aI1
aI123
aI123
aI123
aI123
aI123
aI123
aI123
aI123
aI123
aI123
aI123
aI123
aI1
aI123
aI123
aI123
aI123
aI123
aI123
aI123
aI123
aI1
aI123
aI123
aI123
aI123
aI123
aI123
aI1
aI123
aI1
aI123
aI123
aI123
aI123
aI123
aI123
aI123
aI123
aI1
aI123
aI123
aI123
aI123
aI123
aI123
aI123
aI1
aI123
aI123
aI1
aI123
aI123
aI123
aI123
aI123
aI123
aI123
aI1
aI123
aI123
aI123
aI123
aI123
aI1
aI123
aI123
aI123
aI123
aI1
aI1
aI1
aI123
asg974
(lp1327
I66
aI0
aI0
aI12
aI124
aI51
aI0
aI20
aI0
aI6
aI14
aI0
aI45
aI0
aI20
aI0
aI39
aI19
aI0
aI2
aI8
aI0
aI1
aI0
aI20
aI0
aI0
aI3
aI1
aI0
aI0
aI29
aI0
aI6
aI0
aI0
aI0
aI6
aI7
aI4
aI0
aI0
aI0
aI1
aI0
aI17
aI32
aI0
aI21
aI1
aI0
aI12
aI0
aI0
aI0
aI0
aI0
aI11
aI0
aI6
aI0
aI0
aI45
aI0
aI23
aI0
aI21
aI50
aI0
aI9
aI0
aI15
aI21
aI15
aI20
aI0
aI41
aI4
aI3
aI1
aI3
aI0
aI6
aI0
aI3
aI2
aI0
aI3
aI2
aI0
aI25
aI10
aI0
aI20
aI6
aI0
aI32
aI36
aI1
aI2
aI0
aI0
aI23
aI0
aI10
aI0
aI9
aI0
aI20
aI15
aI5
aI1
aI13
aI0
aI0
aI2
aI0
aI0
aI0
aI14
aI0
aI12
aI10
aI9
aI4
aI0
aI11
aI122
aI32
aI41
aI61
aI0
aI20
aI6
aI6
aI14
aI41
aI14
aI0
aI7
aI14
aI11
aI74
aI3
aI8
aI17
aI0
aI20
aI0
aI9
aI0
aI0
aI64
aI3
aI0
aI7
aI9
aI6
aI0
aI18
aI23
aI0
aI59
aI0
aI19
aI7
aI6
aI145
aI7
aI18
aI24
aI0
aI76
aI1
aI11
aI36
aI23
aI70
aI0
aI192
aI0
aI39
aI19
aI21
aI0
aI10
aI10
aI49
aI9
aI31
aI0
aI18
aI19
aI17
aI1
aI3
aI3
aI0
aI16
aI0
aI0
aI2
aI9
aI0
aI3
aI0
aI21
aI0
aI2
aI1
aI0
aI35
aI0
aI0
aI16
aI22
aI17
aI0
aI16
aI7
aI19
aI7
aI0
aI1
aI0
aI0
aI12
aI9
aI10
aI13
aI4
aI0
aI0
aI3
aI0
aI0
aI0
aI1
aI0
aI5
aI0
aI0
aI0
aI46
aI24
aI0
aI0
aI57
aI331
aI25
aI11
aI18
aI1
aI0
aI30
aI12
aI21
aI0
aI6
aI0
aI3
aI0
aI123
aI65
aI4
aI1
aI0
aI151
aI0
aI65
aI21
aI10
aI68
aI3
aI49
aI0
aI37
aI0
aI12
aI11
aI1
aI20
aI0
aI3
aI3
aI1
aI0
aI0
aI103
aI26
aI11
aI28
aI7
aI1
aI0
aI7
aI9
aI0
aI12
aI6
aI6
aI0
aI3
aI0
aI151
aI0
aI23
aI1
aI0
aI8
aI0
aI0
aI0
aI0
aI41
aI2
aI0
aI0
aI0
aI1
asg648
(lp1328
I1
aI0
aI0
aI1
aI1
aI1
aI0
aI2
aI0
aI1
aI1
aI0
aI1
aI0
aI3
aI0
aI3
aI2
aI0
aI1
aI3
aI0
aI1
aI0
aI2
aI0
aI0
aI1
aI2
aI0
aI0
aI6
aI0
aI2
aI0
aI0
aI0
aI1
aI2
aI1
aI0
aI0
aI0
aI3
aI0
aI2
aI6
aI0
aI4
aI1
aI0
aI1
aI0
aI0
aI0
aI0
aI0
aI10
aI0
aI5
aI0
aI0
aI3
aI0
aI1
aI0
aI3
aI2
aI0
aI4
aI0
aI4
aI2
aI2
aI1
aI0
aI1
aI2
aI1
aI2
aI1
aI0
aI3
aI0
aI2
aI1
aI0
aI2
aI2
aI0
aI6
aI1
aI0
aI1
aI1
aI0
aI2
aI3
aI1
aI12
aI0
aI0
aI14
aI0
aI1
aI0
aI1
aI0
aI6
aI4
aI2
aI1
aI8
aI0
aI0
aI1
aI0
aI0
aI0
aI1
aI0
aI1
aI1
aI1
aI1
aI0
aI1
aI1
aI4
aI4
aI8
aI0
aI6
aI4
aI1
aI1
aI1
aI10
aI0
aI7
aI1
aI3
aI1
aI3
aI1
aI1
aI0
aI2
aI0
aI1
aI0
aI0
aI1
aI1
aI0
aI6
aI1
aI1
aI0
aI2
aI3
aI0
aI10
aI0
aI2
aI2
aI3
aI1
aI5
aI1
aI11
aI0
aI1
aI1
aI1
aI1
aI1
aI8
aI0
aI2
aI0
aI7
aI1
aI5
aI0
aI1
aI3
aI3
aI7
aI2
aI0
aI4
aI2
aI1
aI7
aI4
aI1
aI0
aI2
aI0
aI0
aI1
aI1
aI0
aI3
aI0
aI1
aI0
aI7
aI1
aI0
aI2
aI0
aI0
aI1
aI1
aI2
aI0
aI2
aI2
aI1
aI6
aI0
aI9
aI0
aI0
aI5
aI4
aI5
aI2
aI2
aI0
aI0
aI1
aI0
aI0
aI0
aI6
aI0
aI7
aI0
aI0
aI0
aI1
aI22
aI0
aI0
aI1
aI2
aI1
aI6
aI1
aI1
aI0
aI1
aI3
aI1
aI0
aI4
aI0
aI14
aI0
aI2
aI5
aI11
aI2
aI0
aI1
aI0
aI1
aI11
aI1
aI1
aI9
aI3
aI0
aI2
aI0
aI2
aI2
aI12
aI2
aI0
aI10
aI1
aI13
aI0
aI0
aI1
aI2
aI6
aI1
aI4
aI1
aI0
aI2
aI2
aI0
aI1
aI2
aI1
aI0
aI1
aI0
aI1
aI0
aI1
aI1
aI0
aI1
aI0
aI0
aI0
aI0
aI2
aI4
aI0
aI0
aI0
aI4
asg984
(lp1329
F0.38450940234593178
aF0
aF0
aF0.34148148148148144
aF0.38731643284929035
aF0.36026944585663451
aI1
aF0.32496638278798745
aF0
aF0.41250000000000003
aF0.37500000000000006
aF0
aF0.40172371031746029
aF0
aF0.41960784313725485
aF0
aF0.39858462806026362
aF0.34397636294319484
aF0
aF0.32000000000000001
aF0.33068783068783064
aI1
aF0.75
aF0
aF0.45477545857052504
aF0
aF0
aF0.44545454545454544
aF0.69999999999999996
aF0
aF0
aF0.45117187499999994
aF0
aF0.44
aI1
aF0
aF0
aF0.32698412698412704
aF0.41093117408906882
aF0.30000000000000004
aF0
aF0
aF0
aF0.19444444444444442
aI1
aF0.37973484848484851
aF0.42681178310740348
aF0
aF0.45901360544217684
aF0.75
aI1
aF0.37379310344827582
aF0
aI1
aI1
aI1
aI1
aF0.37694322406218317
aI1
aF0.57386363636363635
aI1
aF0
aF0.3741004037212568
aI1
aF0.46657358043496661
aI1
aF0.2912396480331263
aF0.35857500895094879
aF0
aF0.43593749999999998
aF0
aF0.41985951468710092
aF0.41049382716049387
aF0.32680914092255609
aF0.3886977886977887
aF0
aF0.39480698529411762
aF0.26936026936026941
aF0.37500000000000006
aF0.20833333333333331
aF0.37500000000000006
aI1
aF0.30129870129870129
aF0
aF0.29427083333333331
aF0.24074074074074073
aI1
aF0.2544642857142857
aF0.26666666666666672
aF0
aF0.38424796747967477
aF0.23287992495309567
aI1
aF0.42605042016806727
aF0.40165289256198344
aF0
aF0.34588684484553972
aF0.4669139465875371
aF0.29166666666666669
aF0.375
aI1
aI1
aF0.3875795604659541
aF0
aF0.37006802721088433
aF0
aF0.40277777777777779
aF0
aF0.35551020408163259
aF0.34523412764539241
aF0.32395833333333335
aF0.47916666666666663
aF0.38780581039755346
aF0
aF0
aF0.39999999999999997
aI1
aF0
aF0
aF0.46376811594202899
aF0
aF0.40316205533596833
aF0.39766081871345033
aF0.33673469387755101
aF0.4081632653061224
aF0
aF0.3928571428571429
aF0.37462469433868822
aF0.31213613972234666
aF0.34011087134459411
aF0.4148747086247086
aI1
aF0.45026737967914432
aF0.28551136363636365
aF0.390625
aF0.44254658385093171
aF0.37644675925925924
aF0.46133412042502947
aI1
aF0.36813186813186805
aF0.34879032258064513
aF0.33352402745995424
aF0.39189880821817646
aF0.27556818181818182
aF0.46581196581196588
aF0.37683823529411764
aF0
aF0.44467905405405406
aF0
aF0.56220095693779903
aI1
aF0
aF0.44375598850207604
aF0.23553719008264459
aF0
aF0.42361111111111116
aF0.39267676767676768
aF0.47712418300653586
aF0
aF0.38260869565217387
aF0.44989316239316235
aF0
aF0.4080088587926996
aF0
aF0.45170940170940166
aF0.34837398373983741
aF0.27551020408163263
aF0.37212068371652457
aF0.52301587301587293
aF0.40682870370370366
aF0.32000929584011156
aF0
aF0.3872863247863248
aF0.27777777777777779
aF0.36389413988657848
aF0.44741532976827103
aF0.37342941611234304
aF0.34021929824561398
aI1
aF0.38556022466103651
aI1
aF0.4000334096983581
aF0.32187842278203721
aF0.44158795749704838
aI1
aF0.34627737226277372
aF0.39020270270270269
aF0.40787247004670685
aF0.42211221122112208
aF0.42922719935431802
aF0
aF0.33716475095785436
aF0.45659099960175226
aF0.41129032258064513
aF0.72916666666666663
aF0.23484848484848481
aF0.60227272727272718
aI1
aF0.38461538461538464
aI1
aI1
aF0.55555555555555558
aF0.54861111111111116
aI1
aF0.89890710382513661
aI1
aF0.44319492502883506
aF0
aF0.54222222222222216
aF0.375
aF0
aF0.34630895037526599
aF0
aF0
aF0.34177611006879299
aF0.42200094831673779
aF0.45439560439560439
aI1
aF0.41185041282175811
aF0.43996569468267582
aF0.38550420168067223
aF0.54050405040504057
aF0
aF0.40760869565217395
aF0
aI1
aF0.47673314339981004
aF0.44699546485260777
aF0.37878787878787884
aF0.29942871336313959
aF0.359338061465721
aI1
aI1
aF0.38541666666666663
aI1
aF0
aF0
aF0.4017857142857143
aI1
aF0.43985849056603776
aF0
aF0
aF0
aF0.43483877635386525
aF0.38169934640522879
aF0
aI1
aF0.39830788084464558
aF0.37298113308309683
aF0.36610279765777493
aF0.21742871189773846
aF0.35126262626262628
aF0.29166666666666669
aF0
aF0.40715372907153735
aF0.41808510638297874
aF0.4581925675675676
aF0
aF0.5431034482758621
aI1
aF0.35130718954248363
aF0
aF0.34968201733222676
aF0.32435003631082066
aF0.2109022556390977
aF0.91176470588235292
aF0
aF0.3695135489731039
aI1
aF0.37501020533126506
aF0.35719278180200786
aF0.45196078431372549
aF0.38012568735271013
aF0.54941860465116277
aF0.35604056437389775
aI1
aF0.30192924312235608
aI1
aF0.42777777777777776
aF0.34286203355015404
aF0.38020833333333331
aF0.39230769230769225
aF0
aF0.23818646232439333
aF0.33516483516483514
aF0.34756097560975607
aI1
aF0
aF0.38971342383107094
aF0.4161664665866347
aF0.51663452266152365
aF0.44474074074074071
aF0.46590909090909088
aF0.31944444444444442
aI1
aF0.44687499999999991
aF0.30599472990777338
aI1
aF0.38180272108843538
aF0.32857142857142851
aF0.41958041958041953
aF0
aF0.32539682539682535
aF0
aF0.36492391851106637
aI1
aF0.39818948412698418
aF0.32812499999999994
aF0
aF0.31228070175438594
aF0
aI1
aF0
aF0
aF0.40603527256069633
aF0.36249999999999999
aI1
aI1
aI1
aF0.78125
assS'heur_weight'
p1330
(dp1331
g650
(lp1332
I67
aI1
aI1
aI15
aI52
aI43
aI0
aI18
aI1
aI7
aI14
aI1
aI34
aI1
aI9
aI1
aI30
aI15
aI0
aI3
aI4
aI0
aI0
aI1
aI15
aI0
aI1
aI1
aI1
aI1
aI1
aI18
aI1
aI5
aI0
aI1
aI1
aI6
aI4
aI5
aI1
aI1
aI1
aI1
aI0
aI0
aI25
aI1
aI6
aI0
aI0
aI3
aI2
aI0
aI0
aI0
aI0
aI5
aI0
aI4
aI0
aI1
aI11
aI0
aI12
aI0
aI8
aI61
aI1
aI7
aI5
aI10
aI11
aI7
aI18
aI1
aI50
aI7
aI3
aI2
aI3
aI0
aI4
aI1
aI1
aI3
aI0
aI3
aI3
aI1
aI7
aI2
aI0
aI2
aI3
aI1
aI23
aI38
aI2
aI0
aI0
aI0
aI10
aI1
aI6
aI1
aI14
aI1
aI27
aI4
aI2
aI1
aI7
aI1
aI1
aI2
aI0
aI1
aI1
aI10
aI1
aI4
aI7
aI11
aI3
aI1
aI10
aI140
aI44
aI50
aI21
aI0
aI0
aI3
aI7
aI9
aI48
aI11
aI0
aI7
aI12
aI11
aI51
aI2
aI9
aI19
aI1
aI27
aI1
aI1
aI0
aI1
aI54
aI4
aI1
aI3
aI11
aI6
aI1
aI6
aI23
aI1
aI22
aI1
aI8
aI5
aI4
aI138
aI1
aI18
aI6
aI1
aI57
aI2
aI11
aI5
aI18
aI38
aI0
aI90
aI0
aI38
aI26
aI6
aI0
aI7
aI2
aI66
aI6
aI24
aI1
aI31
aI7
aI15
aI1
aI2
aI0
aI0
aI6
aI0
aI0
aI2
aI4
aI0
aI1
aI0
aI5
aI1
aI1
aI1
aI1
aI59
aI1
aI1
aI21
aI13
aI16
aI0
aI11
aI1
aI13
aI3
aI0
aI0
aI1
aI0
aI4
aI5
aI3
aI0
aI1
aI0
aI0
aI3
aI0
aI1
aI1
aI1
aI0
aI0
aI1
aI1
aI1
aI37
aI2
aI0
aI0
aI64
aI457
aI25
aI9
aI23
aI1
aI1
aI19
aI2
aI17
aI1
aI1
aI0
aI0
aI1
aI158
aI97
aI5
aI0
aI1
aI126
aI0
aI77
aI8
aI5
aI82
aI1
aI37
aI0
aI55
aI0
aI5
aI9
aI0
aI11
aI1
aI4
aI4
aI1
aI0
aI1
aI130
aI7
aI0
aI24
aI1
aI1
aI0
aI4
aI3
aI0
aI9
aI5
aI5
aI1
aI5
aI1
aI154
aI0
aI7
aI0
aI1
aI10
aI2
aI0
aI0
aI1
aI43
aI0
aI0
aI0
aI0
aI0
asg1323
(lp1333
F0.48854961832061067
aF0
aF0
aF0.44444444444444442
aF0.78242677824267781
aF0.59047619047619049
aI1
aF0.60869565217391308
aF0
aF0.41666666666666669
aF0.5
aF0
aF0.59523809523809523
aF0
aF0.74285714285714288
aF0
aF0.58333333333333337
aF0.65116279069767447
aF1
aF0.40000000000000002
aF0.77777777777777779
aI1
aF1
aF0
aF0.55882352941176472
aF1
aF0
aF0.80000000000000004
aF0
aF0
aF0
aF0.64000000000000001
aF0
aF0.5
aI1
aF0
aF0
aF0.59999999999999998
aF0.69230769230769229
aF0.5
aF0
aF0
aF0
aF0.66666666666666663
aI1
aF1
aF0.5535714285714286
aF0.66666666666666663
aF0.82857142857142863
aF1
aI1
aF0.88
aF0
aI1
aI1
aI1
aI1
aF0.77272727272727271
aI1
aF0.5
aI1
aF0
aF0.87777777777777777
aI1
aF0.69230769230769229
aI1
aF0.8571428571428571
aF0.41904761904761906
aF0
aF0.53333333333333333
aF0.5
aF0.62962962962962965
aF0.73170731707317072
aF0.79411764705882348
aF0.51351351351351349
aF0
aF0.375
aF0.36363636363636365
aF0.5
aF0.33333333333333331
aF0.5
aI1
aF0.7142857142857143
aF0
aF0.875
aF0.5
aI1
aF0.625
aF0.40000000000000002
aF0
aF0.85999999999999999
aF0.9375
aI1
aF0.94117647058823528
aF0.72727272727272729
aF0
aF0.65671641791044777
aF0.36666666666666664
aF0.33333333333333331
aF1
aI1
aI1
aF0.77272727272727271
aF0
aF0.7142857142857143
aF0
aF0.22222222222222221
aF0
aF0.35714285714285715
aF0.88235294117647056
aF0.83333333333333337
aF0.5
aF0.70833333333333337
aF0.5
aF0
aF0.5
aI1
aF0
aF0
aF0.56521739130434778
aF0
aF0.81818181818181823
aF0.61111111111111116
aF0.47619047619047616
aF0.5714285714285714
aF0
aF0.52380952380952384
aF0.42148760330578511
aF0.42857142857142855
aF0.43820224719101125
aF0.80909090909090908
aI1
aF1
aF0.8125
aF0.41666666666666669
aF0.60869565217391308
aF0.42857142857142855
aF0.5
aI1
aF0.46153846153846156
aF0.61290322580645162
aF0.52173913043478259
aF0.63829787234042556
aF0.75
aF0.30769230769230771
aF0.44117647058823528
aF0
aF0.15625
aF0
aF0.90909090909090906
aI1
aF0
aF0.46534653465346537
aF0.63636363636363635
aF0
aF0.75
aF0.3888888888888889
aF0.33333333333333331
aF0
aF0.80000000000000004
aF0.42499999999999999
aF0
aF0.79439252336448596
aF0
aF0.73333333333333328
aF0.66666666666666663
aF0.7142857142857143
aF0.53061224489795922
aF0.90000000000000002
aF0.4375
aF0.88461538461538458
aF0
aF0.60416666666666663
aF0.33333333333333331
aF0.52173913043478259
aF0.90196078431372551
aF0.56097560975609762
aF0.7466666666666667
aI1
aF0.76377952755905509
aI1
aF0.47222222222222221
aF0.40909090909090912
aF0.82857142857142863
aI1
aF0.71999999999999997
aF0.875
aF0.16455696202531644
aF0.59999999999999998
aF0.5714285714285714
aF0
aF0.26190476190476192
aF0.77419354838709675
aF0.5161290322580645
aF0
aF0.77777777777777779
aF1
aI1
aF0.76923076923076927
aI1
aI1
aF0.33333333333333331
aF0.66666666666666663
aI1
aF0.66666666666666663
aI1
aF0.8529411764705882
aF0
aF0.66666666666666663
aF0.5
aF0
aF0.25316455696202533
aF0
aF0
aF0.46153846153846156
aF0.64864864864864868
aF0.38461538461538464
aI1
aF0.62068965517241381
aF0.90909090909090906
aF0.61764705882352944
aF0.72727272727272729
aF1
aF1
aF0.5
aI1
aF0.77777777777777779
aF0.6428571428571429
aF0.83333333333333337
aF1
aF0.88888888888888884
aI1
aI1
aF0.5
aI1
aF0
aF0
aF0.5
aI1
aF1
aF0
aF0
aF0
aF0.54878048780487809
aF0.9555555555555556
aF1
aI1
aF0.37254901960784315
aF0.30966767371601206
aF0.52830188679245282
aF0.75
aF0.42499999999999999
aF0.66666666666666663
aF0
aF0.64814814814814814
aF0.90000000000000002
aF0.46875
aF0
aF0.875
aI1
aF1
aF0
aF0.39923954372623577
aF0.36601307189542481
aF0.6428571428571429
aF1
aF0
aF0.57718120805369133
aI1
aF0.41221374045801529
aF0.81395348837209303
aF0.70588235294117652
aF0.38805970149253732
aF0.75
aF0.65740740740740744
aI1
aF0.38202247191011235
aI1
aF0.72222222222222221
aF0.60869565217391308
aF1
aF0.71794871794871795
aF0
aF0.55555555555555558
aF0.42857142857142855
aF0.5
aI1
aF0
aF0.33333333333333331
aF0.8571428571428571
aF1
aF0.46666666666666667
aF0.90000000000000002
aF0.66666666666666663
aI1
aF0.59999999999999998
aF0.86956521739130432
aI1
aF0.625
aF0.6428571428571429
aF0.54545454545454541
aF0
aF0.2857142857142857
aF0
aF0.51875000000000004
aI1
aF0.83333333333333337
aF1
aF0
aF0.47368421052631576
aF0
aI1
aF1
aF0
aF0.41891891891891891
aF1
aI1
aI1
aI1
aF1
asg1312
(lp1334
F0.0099890232086181641
aF3.7908554077148438e-05
aF5.9843063354492188e-05
aF0.0025050640106201172
aF0.028671026229858398
aF0.028391838073730469
aF3.6001205444335938e-05
aF0.0046961307525634766
aF3.5047531127929688e-05
aF0.001010894775390625
aF0.000431060791015625
aF6.198883056640625e-05
aF0.0046651363372802734
aF0.00013303756713867188
aF0.002532958984375
aF3.910064697265625e-05
aF0.02838587760925293
aF0.030524969100952148
aF0.0005130767822265625
aF8.7976455688476562e-05
aF0.00077486038208007812
aF3.1948089599609375e-05
aF0.00013303756713867188
aF3.2901763916015625e-05
aF0.0048689842224121094
aF0.0007228851318359375
aF3.3855438232421875e-05
aF0.00063395500183105469
aF0.00033593177795410156
aF4.100799560546875e-05
aF3.814697265625e-05
aF0.018880128860473633
aF3.5047531127929688e-05
aF0.00082898139953613281
aF3.5047531127929688e-05
aF0.00047707557678222656
aF3.3855438232421875e-05
aF0.0010609626770019531
aF0.00099301338195800781
aF0.00068616867065429688
aF3.3855438232421875e-05
aF3.4093856811523438e-05
aF5.8889389038085938e-05
aF0.00036787986755371094
aF3.5047531127929688e-05
aF0.01752018928527832
aF0.0084280967712402344
aF0.001956939697265625
aF0.011993885040283203
aF0.00018000602722167969
aF5.6028366088867188e-05
aF0.0041439533233642578
aF0.00067210197448730469
aF3.6001205444335938e-05
aF4.00543212890625e-05
aF0.0011930465698242188
aF5.7935714721679688e-05
aF0.0084099769592285156
aF5.9843063354492188e-05
aF0.0021719932556152344
aF3.3140182495117188e-05
aF6.008148193359375e-05
aF0.030407905578613281
aF5.5074691772460938e-05
aF0.0048520565032958984
aF3.2901763916015625e-05
aF0.03310704231262207
aF0.013537883758544922
aF0.00013184547424316406
aF0.0030210018157958984
aF0.0019071102142333984
aF0.0082809925079345703
aF0.007862091064453125
aF0.0068190097808837891
aF0.0024938583374023438
aF4.100799560546875e-05
aF0.0064320564270019531
aF0.0012400150299072266
aF0.00011491775512695312
aF0.00019788742065429688
aF0.00028300285339355469
aF3.0040740966796875e-05
aF0.0026988983154296875
aF5.6028366088867188e-05
aF0.0012171268463134766
aF0.00048804283142089844
aF3.0994415283203125e-05
aF0.00074887275695800781
aF0.00028896331787109375
aF3.4809112548828125e-05
aF0.023710966110229492
aF0.025713920593261719
aF0.00023913383483886719
aF0.0050609111785888672
aF0.0028009414672851562
aF3.3140182495117188e-05
aF0.029600858688354492
aF0.016331911087036133
aF0.00040102005004882812
aF0.0032320022583007812
aF0.00013494491577148438
aF3.7908554077148438e-05
aF0.039856910705566406
aF6.6041946411132812e-05
aF0.0023870468139648438
aF3.6954879760742188e-05
aF0.0030710697174072266
aF7.3194503784179688e-05
aF0.0099501609802246094
aF0.019830942153930664
aF0.0008449554443359375
aF0.00072002410888671875
aF0.0052700042724609375
aF0.00012803077697753906
aF5.91278076171875e-05
aF0.00023508071899414062
aF3.0994415283203125e-05
aF0.00018191337585449219
aF3.0994415283203125e-05
aF0.0016651153564453125
aF3.2901763916015625e-05
aF0.0011069774627685547
aF0.00095009803771972656
aF0.0010318756103515625
aF0.00033020973205566406
aF5.6982040405273438e-05
aF0.0010991096496582031
aF0.012913942337036133
aF0.0070691108703613281
aF0.014757871627807617
aF0.015254974365234375
aF0.00011396408081054688
aF0.0090539455413818359
aF0.0022730827331542969
aF0.00087904930114746094
aF0.0013611316680908203
aF0.0071430206298828125
aF0.0075500011444091797
aF0.00010991096496582031
aF0.0015971660614013672
aF0.0031728744506835938
aF0.0019280910491943359
aF0.0095639228820800781
aF0.0012009143829345703
aF0.0018301010131835938
aF0.0019919872283935547
aF3.1948089599609375e-05
aF0.0035979747772216797
aF3.6001205444335938e-05
aF0.00095391273498535156
aF3.4093856811523438e-05
aF6.103515625e-05
aF0.0076670646667480469
aF0.00049901008605957031
aF6.29425048828125e-05
aF0.0036501884460449219
aF0.001129150390625
aF0.00074696540832519531
aF3.5047531127929688e-05
aF0.0024049282073974609
aF0.0057959556579589844
aF3.5047531127929688e-05
aF0.04188990592956543
aF3.814697265625e-05
aF0.0020258426666259766
aF0.0039780139923095703
aF0.0021371841430664062
aF0.015441179275512695
aF0.0031390190124511719
aF0.0027530193328857422
aF0.035403966903686523
aF4.482269287109375e-05
aF0.0074901580810546875
aF0.00015497207641601562
aF0.0011270046234130859
aF0.0032360553741455078
aF0.0034029483795166016
aF0.053194046020507812
aF3.814697265625e-05
aF0.048429012298583984
aF3.4093856811523438e-05
aF0.014645814895629883
aF0.0041000843048095703
aF0.024037837982177734
aF3.6954879760742188e-05
aF0.0069599151611328125
aF0.0018870830535888672
aF0.0093519687652587891
aF0.0050399303436279297
aF0.0087559223175048828
aF3.4093856811523438e-05
aF0.0043561458587646484
aF0.0040440559387207031
aF0.0017638206481933594
aF0.00055289268493652344
aF0.0011310577392578125
aF0.00055098533630371094
aF3.5047531127929688e-05
aF0.0023550987243652344
aF0.00032687187194824219
aF0.00012898445129394531
aF0.00031900405883789062
aF0.00096416473388671875
aF3.9815902709960938e-05
aF0.0031311511993408203
aF6.103515625e-05
aF0.0026659965515136719
aF3.6001205444335938e-05
aF0.0037009716033935547
aF0.00016498565673828125
aF3.910064697265625e-05
aF0.0056858062744140625
aF3.6954879760742188e-05
aF3.5047531127929688e-05
aF0.0041480064392089844
aF0.0028390884399414062
aF0.0017039775848388672
aF5.7935714721679688e-05
aF0.0034601688385009766
aF0.0026040077209472656
aF0.0020880699157714844
aF0.0049660205841064453
aF0.00078797340393066406
aF0.0022649765014648438
aF0.0016629695892333984
aF3.3140182495117188e-05
aF0.0058729648590087891
aF0.0061960220336914062
aF0.0021188259124755859
aF0.017992973327636719
aF0.0022211074829101562
aF6.008148193359375e-05
aF3.1948089599609375e-05
aF0.00049710273742675781
aF3.3855438232421875e-05
aF3.8862228393554688e-05
aF3.1948089599609375e-05
aF0.0013179779052734375
aF3.2901763916015625e-05
aF0.0060019493103027344
aF5.9843063354492188e-05
aF0.00040912628173828125
aF5.6982040405273438e-05
aF0.011661052703857422
aF0.047058820724487305
aF0.00027489662170410156
aF3.2901763916015625e-05
aF0.010344028472900391
aF0.039047002792358398
aF0.0069730281829833984
aF0.0055789947509765625
aF0.0048780441284179688
aF0.00037598609924316406
aF6.198883056640625e-05
aF0.0035910606384277344
aF0.0023260116577148438
aF0.0019040107727050781
aF6.4849853515625e-05
aF0.0013659000396728516
aF6.8187713623046875e-05
aF0.0027010440826416016
aF3.6001205444335938e-05
aF0.039797067642211914
aF0.022215843200683594
aF0.0093958377838134766
aF0.0008869171142578125
aF3.4093856811523438e-05
aF0.033386945724487305
aF3.6001205444335938e-05
aF0.037837982177734375
aF0.018022060394287109
aF0.0030009746551513672
aF0.0092120170593261719
aF0.0022311210632324219
aF0.037386894226074219
aF6.198883056640625e-05
aF0.020707130432128906
aF0.0028150081634521484
aF0.0016260147094726562
aF0.0061039924621582031
aF0.0023097991943359375
aF0.0029819011688232422
aF3.6001205444335938e-05
aF0.0042459964752197266
aF0.00075793266296386719
aF0.0020821094512939453
aF0.00013494491577148438
aF3.4093856811523438e-05
aF0.012755870819091797
aF0.0058541297912597656
aF0.0060169696807861328
aF0.0074801445007324219
aF0.0010888576507568359
aF0.00072693824768066406
aF3.6001205444335938e-05
aF0.00087308883666992188
aF0.0032851696014404297
aF5.6982040405273438e-05
aF0.0023849010467529297
aF0.0012829303741455078
aF0.00075602531433105469
aF6.6041946411132812e-05
aF0.00059604644775390625
aF6.008148193359375e-05
aF0.02600407600402832
aF6.29425048828125e-05
aF0.0047998428344726562
aF0.0016150474548339844
aF3.1948089599609375e-05
aF0.0015809535980224609
aF0.00028705596923828125
aF3.2901763916015625e-05
aF0.0030500888824462891
aF6.7949295043945312e-05
aF0.0058248043060302734
aF0.0031058788299560547
aF3.6954879760742188e-05
aF0.00026702880859375
aF3.1948089599609375e-05
aF0.00086808204650878906
asg1314
(lp1335
I123
aI123
aI123
aI123
aI123
aI123
aI1
aI123
aI123
aI123
aI123
aI123
aI123
aI123
aI123
aI123
aI123
aI123
aI123
aI123
aI123
aI1
aI123
aI123
aI123
aI123
aI123
aI123
aI123
aI123
aI123
aI123
aI123
aI123
aI1
aI123
aI123
aI123
aI123
aI123
aI123
aI123
aI123
aI123
aI1
aI123
aI123
aI123
aI123
aI123
aI1
aI123
aI123
aI1
aI1
aI1
aI1
aI123
aI1
aI123
aI1
aI123
aI123
aI1
aI123
aI1
aI123
aI123
aI123
aI123
aI123
aI123
aI123
aI123
aI123
aI123
aI123
aI123
aI123
aI123
aI123
aI1
aI123
aI123
aI123
aI123
aI1
aI123
aI123
aI123
aI123
aI123
aI1
aI123
aI123
aI123
aI123
aI123
aI123
aI123
aI1
aI1
aI123
aI123
aI123
aI123
aI123
aI123
aI123
aI123
aI123
aI123
aI123
aI123
aI123
aI123
aI1
aI123
aI123
aI123
aI123
aI123
aI123
aI123
aI123
aI123
aI123
aI123
aI123
aI123
aI123
aI1
aI123
aI123
aI123
aI123
aI123
aI123
aI1
aI123
aI123
aI123
aI123
aI123
aI123
aI123
aI123
aI123
aI123
aI123
aI1
aI123
aI123
aI123
aI123
aI123
aI123
aI123
aI123
aI123
aI123
aI123
aI123
aI123
aI123
aI123
aI123
aI123
aI123
aI123
aI123
aI123
aI123
aI123
aI123
aI123
aI123
aI123
aI1
aI123
aI1
aI123
aI123
aI123
aI1
aI123
aI123
aI123
aI123
aI123
aI123
aI123
aI123
aI123
aI123
aI123
aI123
aI1
aI123
aI1
aI1
aI123
aI123
aI1
aI123
aI1
aI123
aI123
aI123
aI123
aI123
aI123
aI123
aI123
aI123
aI123
aI123
aI1
aI123
aI123
aI123
aI123
aI123
aI123
aI123
aI1
aI123
aI123
aI123
aI123
aI123
aI1
aI1
aI123
aI1
aI123
aI123
aI123
aI1
aI123
aI123
aI123
aI123
aI123
aI123
aI123
aI1
aI123
aI123
aI123
aI123
aI123
aI123
aI123
aI123
aI123
aI123
aI123
aI123
aI1
aI123
aI123
aI123
aI123
aI123
aI123
aI123
aI123
aI1
aI123
aI123
aI123
aI123
aI123
aI123
aI1
aI123
aI1
aI123
aI123
aI123
aI123
aI123
aI123
aI123
aI123
aI1
aI123
aI123
aI123
aI123
aI123
aI123
aI123
aI1
aI123
aI123
aI1
aI123
aI123
aI123
aI123
aI123
aI123
aI123
aI1
aI123
aI123
aI123
aI123
aI123
aI1
aI123
aI123
aI123
aI123
aI1
aI1
aI1
aI123
asg974
(lp1336
I64
aI0
aI0
aI12
aI187
aI62
aI0
aI28
aI0
aI5
aI14
aI0
aI50
aI0
aI26
aI0
aI42
aI28
aI1
aI2
aI14
aI0
aI1
aI0
aI19
aI1
aI0
aI4
aI0
aI0
aI0
aI32
aI0
aI5
aI0
aI0
aI0
aI9
aI9
aI5
aI0
aI0
aI0
aI2
aI0
aI33
aI31
aI2
aI29
aI1
aI0
aI22
aI0
aI0
aI0
aI0
aI0
aI17
aI0
aI4
aI0
aI0
aI79
aI0
aI27
aI0
aI48
aI44
aI0
aI8
aI5
aI17
aI30
aI27
aI19
aI0
aI30
aI4
aI3
aI1
aI3
aI0
aI10
aI0
aI7
aI3
aI0
aI5
aI2
aI0
aI43
aI30
aI0
aI32
aI8
aI0
aI44
aI22
aI1
aI4
aI0
aI0
aI34
aI0
aI15
aI0
aI4
aI0
aI15
aI30
aI10
aI1
aI17
aI1
aI0
aI2
aI0
aI0
aI0
aI13
aI0
aI18
aI11
aI10
aI4
aI0
aI11
aI102
aI33
aI39
aI89
aI0
aI35
aI13
aI5
aI14
aI36
aI11
aI0
aI6
aI19
aI12
aI90
aI6
aI4
aI15
aI0
aI5
aI0
aI10
aI0
aI0
aI47
aI7
aI0
aI9
aI7
aI3
aI0
aI24
aI17
aI0
aI85
aI0
aI22
aI10
aI10
aI156
aI9
aI14
aI46
aI0
aI87
aI1
aI12
aI46
aI23
aI112
aI0
aI291
aI0
aI34
aI18
aI29
aI0
aI18
aI14
aI13
aI9
aI32
aI0
aI11
aI24
aI16
aI0
aI7
aI4
aI0
aI20
aI0
aI0
aI1
aI8
aI0
aI2
aI0
aI29
aI0
aI2
aI1
aI0
aI20
aI0
aI0
aI18
aI24
aI10
aI0
aI18
aI10
aI21
aI8
aI1
aI2
aI1
aI0
aI14
aI9
aI15
aI33
aI8
aI0
aI0
aI3
aI0
aI0
aI0
aI1
aI0
aI8
aI0
aI0
aI0
aI45
aI43
aI1
aI0
aI38
aI205
aI28
aI27
aI17
aI2
aI0
aI35
aI18
aI15
aI0
aI7
aI0
aI6
aI0
aI105
aI56
aI9
aI1
aI0
aI172
aI0
aI54
aI35
aI12
aI52
aI3
aI71
aI0
aI34
aI0
aI13
aI14
aI2
aI28
aI0
aI5
aI3
aI1
aI0
aI0
aI65
aI42
aI17
aI21
aI9
aI2
aI0
aI6
aI20
aI0
aI15
aI9
aI6
aI0
aI2
aI0
aI166
aI0
aI35
aI3
aI0
aI9
aI0
aI0
aI1
aI0
aI31
aI5
aI0
aI0
aI0
aI1
asg648
(lp1337
I5
aI0
aI0
aI1
aI1
aI2
aI0
aI1
aI0
aI1
aI1
aI0
aI1
aI0
aI1
aI0
aI1
aI2
aI1
aI1
aI1
aI0
aI1
aI0
aI6
aI3
aI0
aI1
aI0
aI0
aI0
aI1
aI0
aI1
aI0
aI0
aI0
aI1
aI1
aI1
aI0
aI0
aI0
aI1
aI0
aI1
aI2
aI1
aI2
aI1
aI0
aI1
aI0
aI0
aI0
aI0
aI0
aI1
aI0
aI5
aI0
aI0
aI1
aI0
aI4
aI0
aI1
aI1
aI0
aI3
aI1
aI3
aI1
aI1
aI1
aI0
aI5
aI2
aI1
aI1
aI1
aI0
aI1
aI0
aI3
aI2
aI0
aI1
aI2
aI0
aI1
aI1
aI0
aI1
aI1
aI0
aI1
aI1
aI1
aI1
aI0
aI0
aI1
aI0
aI1
aI0
aI7
aI0
aI9
aI1
aI1
aI2
aI1
aI1
aI0
aI1
aI0
aI0
aI0
aI5
aI0
aI1
aI1
aI1
aI1
aI0
aI1
aI1
aI1
aI1
aI1
aI0
aI1
aI1
aI2
aI1
aI1
aI1
aI0
aI1
aI1
aI1
aI1
aI1
aI2
aI1
aI0
aI1
aI0
aI1
aI0
aI0
aI2
aI1
aI0
aI2
aI2
aI1
aI0
aI1
aI1
aI0
aI1
aI0
aI1
aI1
aI1
aI1
aI1
aI1
aI1
aI0
aI1
aI1
aI1
aI1
aI1
aI1
aI0
aI1
aI0
aI1
aI1
aI1
aI0
aI1
aI1
aI1
aI1
aI1
aI0
aI1
aI1
aI1
aI0
aI1
aI1
aI0
aI1
aI0
aI0
aI3
aI1
aI0
aI1
aI0
aI1
aI0
aI1
aI1
aI0
aI1
aI0
aI0
aI2
aI1
aI1
aI0
aI1
aI1
aI1
aI1
aI1
aI13
aI1
aI0
aI1
aI1
aI1
aI1
aI1
aI0
aI0
aI1
aI0
aI0
aI0
aI12
aI0
aI3
aI0
aI0
aI0
aI1
aI1
aI1
aI0
aI1
aI1
aI1
aI1
aI1
aI1
aI0
aI1
aI1
aI1
aI0
aI1
aI0
aI1
aI0
aI1
aI2
aI1
aI1
aI0
aI1
aI0
aI1
aI1
aI5
aI1
aI1
aI1
aI0
aI1
aI0
aI1
aI1
aI1
aI1
aI0
aI1
aI1
aI2
aI0
aI0
aI1
aI1
aI1
aI1
aI1
aI1
aI0
aI1
aI1
aI0
aI1
aI1
aI1
aI0
aI3
aI0
aI1
aI0
aI1
aI3
aI0
aI2
aI0
aI0
aI29
aI0
aI1
aI1
aI0
aI0
aI0
aI3
asg984
(lp1338
F0.36592813256376838
aF0
aF0
aF0.32074074074074072
aF0.63195205811499189
aF0.43687510591425183
aI1
aF0.48588077095472887
aF0
aF0.33125000000000004
aF0.37500000000000006
aF0
aF0.44022817460317459
aF0
aF0.55350140056022412
aF0
aF0.51362405838041436
aF0.57159740754860855
aF0.9285714285714286
aF0.32000000000000001
aF0.58201058201058209
aI1
aF0.75
aF0
aF0.42077798861480076
aF0.8214285714285714
aF0
aF0.60000000000000009
aF0
aF0
aF0
aF0.55677083333333333
aF0
aF0.38999999999999996
aI1
aF0
aF0
aF0.45555555555555555
aF0.52834008097165985
aF0.38636363636363635
aF0
aF0
aF0
aF0.5
aI1
aF0.90987318840579712
aF0.48219173618352457
aF0.64999999999999991
aF0.70425170068027221
aF0.75
aI1
aF0.73287356321839081
aF0
aI1
aI1
aI1
aI1
aF0.74978877999324101
aI1
aF0.35511363636363635
aI1
aF0
aF0.75307179217131825
aI1
aF0.55322839976305316
aI1
aF0.77965838509316765
aF0.33498030791263872
aF0
aF0.39791666666666664
aF0.40384615384615385
aF0.48499361430395921
aF0.59590484793736831
aF0.62769784172661869
aF0.33587223587223586
aF0
aF0.29494485294117651
aF0.23232323232323232
aF0.37500000000000006
aF0.29166666666666669
aF0.37500000000000006
aI1
aF0.51818181818181819
aF0
aF0.62760416666666663
aF0.32407407407407407
aI1
aF0.48660714285714285
aF0.26666666666666672
aF0
aF0.77912601626016253
aF0.88672607879924958
aI1
aF0.76134453781512601
aF0.66942148760330578
aF0
aF0.56448653741260468
aF0.34624134520276956
aF0.29166666666666669
aF0.93939393939393945
aI1
aI1
aF0.69190584844481806
aF0
aF0.54217687074829934
aF0
aF0.16487455197132614
aF0
aF0.30673469387755103
aF0.76653891018163633
aF0.6479166666666667
aF0.4375
aF0.58046636085626913
aF0.41666666666666669
aF0
aF0.39999999999999997
aI1
aF0
aF0
aF0.35326086956521735
aF0
aF0.49802371541501983
aF0.42543859649122817
aF0.36281179138321989
aF0.4081632653061224
aF0
aF0.3928571428571429
aF0.33642863775652332
aF0.36986117330944912
aF0.39710915990773121
aF0.67518939393939392
aI1
aF0.82635599694423223
aF0.63991477272727271
aF0.29427083333333331
aF0.44720496894409939
aF0.34862764550264547
aF0.42842384887839435
aI1
aF0.37582417582417582
aF0.50630040322580638
aF0.40732265446224253
aF0.47323974555823645
aF0.57386363636363646
aF0.28205128205128205
aF0.31874999999999998
aF0
aF0.13830236486486489
aF0
aF0.60287081339712922
aI1
aF0
aF0.37198977962312363
aF0.43388429752066116
aF0
aF0.6130050505050505
aF0.29924242424242425
aF0.2908496732026144
aF0
aF0.50652173913043486
aF0.36463675213675212
aF0
aF0.68259664664548592
aF0
aF0.52564102564102555
aF0.58617886178861778
aF0.61394557823129248
aF0.39668905536898308
aF0.70238095238095233
aF0.35879629629629628
aF0.81109109923309308
aF0
aF0.43222489316239315
aF0.27777777777777779
aF0.38563327032136108
aF0.5623885918003565
aF0.43773096821877316
aF0.64374060150375945
aI1
aF0.61750098595188552
aI1
aF0.42220313096601758
aF0.3214676889375685
aF0.70853010625737911
aI1
aF0.62014598540145982
aF0.66047297297297303
aF0.15321870980843427
aF0.50396039603960396
aF0.36541565778853913
aF0
aF0.23029556650246305
aF0.64197530864197527
aF0.36812144212523712
aF0
aF0.56818181818181812
aF0.81818181818181812
aI1
aF0.51136363636363646
aI1
aI1
aF0.19444444444444442
aF0.4907407407407407
aI1
aF0.52459016393442615
aI1
aF0.55449826989619377
aF0
aF0.65777777777777779
aF0.375
aF0
aF0.22762406183488296
aF0
aF0
aF0.35772357723577242
aF0.49170222854433387
aF0.32307692307692309
aI1
aF0.46478873239436624
aF0.76329331046312177
aF0.45413165266106442
aF0.67236723672367238
aF0.98863636363636365
aF0.66304347826086962
aF0.49193548387096775
aI1
aF0.72697056030389362
aF0.56831065759637189
aF0.67613636363636376
aF0.8905861897665176
aF0.78959810874704484
aI1
aI1
aF0.38541666666666663
aI1
aF0
aF0
aF0.29464285714285715
aI1
aF0.65094339622641517
aF0
aF0
aF0
aF0.44189231087226133
aF0.85969102792632213
aF0.9642857142857143
aI1
aF0.30349736048265463
aF0.2412102520675028
aF0.43929733246584252
aF0.63434119960668633
aF0.31527777777777777
aF0.49999999999999994
aF0
aF0.44989852866565194
aF0.70425531914893624
aF0.35768581081081086
aF0
aF0.76077586206896552
aI1
aF0.92483660130718948
aF0
aF0.33337273937966844
aF0.26416848220769784
aF0.59191729323308273
aF0.97058823529411764
aF0
aF0.45972145127920477
aI1
aF0.34397069028860677
aF0.71784851950692596
aF0.58137254901960789
aF0.29893951296150828
aF0.6191860465116279
aF0.59986772486772488
aI1
aF0.35246409613881929
aI1
aF0.54351851851851851
aF0.49845943170147211
aF0.97916666666666663
aF0.54529914529914525
aF0
aF0.53320561941251599
aF0.26923076923076922
aF0.48170731707317072
aI1
aF0
aF0.27435897435897433
aF0.61444577831132441
aF0.86330761812921886
aF0.41577777777777775
aF0.6431818181818183
aF0.5
aI1
aF0.47499999999999998
aF0.65942028985507239
aI1
aF0.46045918367346939
aF0.49857142857142861
aF0.38461538461538458
aF0
aF0.19047619047619047
aF0
aF0.42093812877263581
aI1
aF0.65736607142857151
aF0.890625
aF0
aF0.35350877192982455
aF0
aI1
aF0.54032258064516125
aF0
aF0.33789509848831883
aF0.9609375
aI1
aI1
aI1
aF0.84375
assS'heur_sort'
p1339
(dp1340
g650
(lp1341
I66
aI1
aI1
aI22
aI51
aI57
aI0
aI12
aI1
aI6
aI14
aI1
aI36
aI1
aI9
aI1
aI27
aI4
aI0
aI3
aI3
aI0
aI0
aI1
aI13
aI0
aI1
aI1
aI1
aI1
aI1
aI19
aI1
aI6
aI0
aI1
aI1
aI5
aI4
aI5
aI1
aI1
aI1
aI1
aI0
aI1
aI23
aI0
aI0
aI0
aI0
aI2
aI1
aI0
aI0
aI0
aI0
aI2
aI0
aI7
aI0
aI1
aI11
aI0
aI11
aI0
aI3
aI80
aI1
aI11
aI4
aI12
aI1
aI9
aI25
aI1
aI43
aI7
aI4
aI2
aI3
aI0
aI8
aI1
aI4
aI3
aI0
aI4
aI3
aI1
aI6
aI0
aI0
aI0
aI0
aI1
aI25
aI28
aI2
aI0
aI0
aI0
aI4
aI1
aI14
aI1
aI14
aI1
aI26
aI1
aI3
aI1
aI3
aI1
aI1
aI2
aI0
aI1
aI1
aI11
aI1
aI18
aI12
aI11
aI3
aI1
aI10
aI135
aI47
aI35
aI21
aI0
aI0
aI3
aI7
aI13
aI61
aI8
aI0
aI6
aI12
aI11
aI97
aI3
aI6
aI19
aI1
aI24
aI1
aI1
aI0
aI1
aI55
aI4
aI1
aI1
aI7
aI6
aI1
aI15
aI21
aI1
aI12
aI1
aI10
aI2
aI4
aI158
aI1
aI2
aI8
aI1
aI103
aI2
aI11
aI32
aI15
aI21
aI0
aI198
aI0
aI11
aI25
aI1
aI0
aI4
aI1
aI56
aI1
aI25
aI1
aI14
aI3
aI15
aI1
aI3
aI0
aI0
aI11
aI0
aI0
aI2
aI5
aI0
aI1
aI0
aI13
aI1
aI0
aI1
aI1
aI65
aI1
aI1
aI22
aI15
aI16
aI0
aI12
aI1
aI19
aI0
aI0
aI0
aI1
aI0
aI1
aI5
aI3
aI1
aI1
aI0
aI0
aI4
aI0
aI1
aI1
aI0
aI0
aI0
aI1
aI0
aI1
aI49
aI4
aI0
aI0
aI74
aI447
aI23
aI12
aI29
aI1
aI1
aI23
aI2
aI11
aI1
aI1
aI0
aI1
aI1
aI131
aI66
aI0
aI0
aI1
aI114
aI0
aI17
aI4
aI5
aI95
aI0
aI36
aI0
aI29
aI0
aI4
aI4
aI0
aI16
aI1
aI2
aI4
aI0
aI0
aI1
aI136
aI19
aI0
aI22
aI1
aI0
aI0
aI4
aI2
aI0
aI8
aI2
aI6
aI1
aI4
aI1
aI164
aI0
aI7
aI0
aI1
aI8
aI1
aI0
aI1
aI1
aI52
aI0
aI0
aI0
aI0
aI0
asg1323
(lp1342
F0.49618320610687022
aF0
aF0
aF0.18518518518518517
aF0.78661087866108792
aF0.45714285714285713
aI1
aF0.73913043478260865
aF0
aF0.5
aF0.5
aF0
aF0.5714285714285714
aF0
aF0.74285714285714288
aF0
aF0.625
aF0.90697674418604646
aF1
aF0.40000000000000002
aF0.83333333333333337
aI1
aF1
aF0
aF0.61764705882352944
aF1
aF0
aF0.80000000000000004
aF0
aF0
aF0
aF0.62
aF0
aF0.40000000000000002
aI1
aF0
aF0
aF0.66666666666666663
aF0.69230769230769229
aF0.5
aF0
aF0
aF0
aF0.66666666666666663
aI1
aF0.96969696969696972
aF0.5892857142857143
aF1
aF1
aF1
aI1
aF0.92000000000000004
aF0.5
aI1
aI1
aI1
aI1
aF0.90909090909090906
aI1
aF0.125
aI1
aF0
aF0.87777777777777777
aI1
aF0.71794871794871795
aI1
aF0.9464285714285714
aF0.23809523809523808
aF0
aF0.26666666666666666
aF0.59999999999999998
aF0.55555555555555558
aF0.97560975609756095
aF0.73529411764705888
aF0.32432432432432434
aF0
aF0.46250000000000002
aF0.36363636363636365
aF0.33333333333333331
aF0.33333333333333331
aF0.5
aI1
aF0.42857142857142855
aF0
aF0.5
aF0.5
aI1
aF0.5
aF0.40000000000000002
aF0
aF0.88
aF1
aI1
aF1
aF1
aF0
aF0.62686567164179108
aF0.53333333333333333
aF0.33333333333333331
aF1
aI1
aI1
aF0.90909090909090906
aF0
aF0.33333333333333331
aF0
aF0.22222222222222221
aF0
aF0.38095238095238093
aF0.97058823529411764
aF0.75
aF0.5
aF0.875
aF0.5
aF0
aF0.5
aI1
aF0
aF0
aF0.52173913043478259
aF0
aF0.18181818181818182
aF0.33333333333333331
aF0.47619047619047616
aF0.5714285714285714
aF0
aF0.52380952380952384
aF0.44214876033057854
aF0.38961038961038963
aF0.6067415730337079
aF0.80909090909090908
aI1
aF1
aF0.8125
aF0.41666666666666669
aF0.43478260869565216
aF0.27380952380952384
aF0.63636363636363635
aI1
aF0.53846153846153844
aF0.61290322580645162
aF0.52173913043478259
aF0.31205673758865249
aF0.625
aF0.53846153846153844
aF0.44117647058823528
aF0
aF0.25
aF0
aF0.90909090909090906
aI1
aF0
aF0.45544554455445546
aF0.63636363636363635
aF0
aF0.91666666666666663
aF0.61111111111111116
aF0.33333333333333331
aF0
aF0.5
aF0.47499999999999998
aF0
aF0.88785046728971961
aF0
aF0.66666666666666663
aF0.8666666666666667
aF0.7142857142857143
aF0.46258503401360546
aF0.90000000000000002
aF0.9375
aF0.84615384615384615
aF0
aF0.28472222222222221
aF0.33333333333333331
aF0.52173913043478259
aF0.37254901960784315
aF0.63414634146341464
aF0.85999999999999999
aI1
aF0.48031496062992124
aI1
aF0.84722222222222221
aF0.43181818181818182
aF0.97142857142857142
aI1
aF0.83999999999999997
aF0.9375
aF0.29113924050632911
aF0.93333333333333335
aF0.5535714285714286
aF0
aF0.66666666666666663
aF0.90322580645161288
aF0.5161290322580645
aF0
aF0.66666666666666663
aF1
aI1
aF0.57692307692307687
aI1
aI1
aF0.33333333333333331
aF0.58333333333333337
aI1
aF0.66666666666666663
aI1
aF0.61764705882352944
aF0
aF1
aF0.5
aF0
aF0.17721518987341772
aF0
aF0
aF0.4358974358974359
aF0.59459459459459463
aF0.38461538461538464
aI1
aF0.58620689655172409
aF0.90909090909090906
aF0.44117647058823528
aF1
aF1
aF1
aF0.5
aI1
aF0.94444444444444442
aF0.6428571428571429
aF0.83333333333333337
aF0.96969696969696972
aF0.88888888888888884
aI1
aI1
aF0.33333333333333331
aI1
aF0
aF0
aF1
aI1
aF1
aF0
aF1
aF0
aF0.40243902439024393
aF0.91111111111111109
aF1
aI1
aF0.27450980392156865
aF0.32477341389728098
aF0.56603773584905659
aF0.66666666666666663
aF0.27500000000000002
aF0.66666666666666663
aF0
aF0.57407407407407407
aF0.90000000000000002
aF0.65625
aF0
aF0.875
aI1
aF0.83333333333333337
aF0
aF0.50190114068441061
aF0.56862745098039214
aF1
aF1
aF0
aF0.6174496644295302
aI1
aF0.87022900763358779
aF0.90697674418604646
aF0.70588235294117652
aF0.29104477611940299
aF1
aF0.66666666666666663
aI1
aF0.6741573033707865
aI1
aF0.77777777777777779
aF0.82608695652173914
aF1
aF0.58974358974358976
aF0
aF0.77777777777777779
aF0.42857142857142855
aF1
aI1
aF0
aF0.30256410256410254
aF0.61224489795918369
aF1
aF0.51111111111111107
aF0.90000000000000002
aF1
aI1
aF0.59999999999999998
aF0.91304347826086951
aI1
aF0.66666666666666663
aF0.8571428571428571
aF0.45454545454545453
aF0
aF0.42857142857142855
aF0
aF0.48749999999999999
aI1
aF0.83333333333333337
aF1
aF0
aF0.57894736842105265
aF0.5
aI1
aF0
aF0
aF0.29729729729729731
aF1
aI1
aI1
aI1
aF1
asg1312
(lp1343
F0.0081050395965576172
aF1.7881393432617188e-05
aF6.7949295043945312e-05
aF0.0020220279693603516
aF0.025228977203369141
aF0.024775028228759766
aF1.5974044799804688e-05
aF0.0038061141967773438
aF4.6968460083007812e-05
aF0.00082898139953613281
aF0.00032281875610351562
aF1.7881393432617188e-05
aF0.00360107421875
aF1.9073486328125e-05
aF0.0020170211791992188
aF4.00543212890625e-05
aF0.01916193962097168
aF0.024511098861694336
aF0.00024008750915527344
aF4.6014785766601562e-05
aF0.00026297569274902344
aF1.5020370483398438e-05
aF0.00013995170593261719
aF1.7881393432617188e-05
aF0.0038440227508544922
aF0.00067114830017089844
aF1.5974044799804688e-05
aF0.00041604042053222656
aF0.00018215179443359375
aF1.5974044799804688e-05
aF1.5974044799804688e-05
aF0.015519857406616211
aF2.193450927734375e-05
aF0.00070810317993164062
aF1.6927719116210938e-05
aF0.000476837158203125
aF1.6927719116210938e-05
aF0.00087618827819824219
aF0.00079607963562011719
aF0.00037693977355957031
aF1.5974044799804688e-05
aF1.811981201171875e-05
aF1.71661376953125e-05
aF0.00023102760314941406
aF1.5974044799804688e-05
aF0.014538049697875977
aF0.0041589736938476562
aF0.0014941692352294922
aF0.0099480152130126953
aF7.3909759521484375e-05
aF1.9073486328125e-05
aF0.0033729076385498047
aF0.00070595741271972656
aF3.9815902709960938e-05
aF1.7881393432617188e-05
aF0.0010290145874023438
aF1.7881393432617188e-05
aF0.0042769908905029297
aF1.7881393432617188e-05
aF0.0017781257629394531
aF1.71661376953125e-05
aF1.8835067749023438e-05
aF0.025786876678466797
aF2.09808349609375e-05
aF0.0022029876708984375
aF1.5974044799804688e-05
aF0.027742862701416016
aF0.010918140411376953
aF1.7881393432617188e-05
aF0.0024199485778808594
aF0.0014281272888183594
aF0.0068049430847167969
aF0.0063588619232177734
aF0.0055389404296875
aF0.0021710395812988281
aF1.5974044799804688e-05
aF0.0055661201477050781
aF0.0010437965393066406
aF3.9815902709960938e-05
aF0.000164031982421875
aF0.00024509429931640625
aF1.71661376953125e-05
aF0.0020759105682373047
aF1.8835067749023438e-05
aF0.00094103813171386719
aF0.00035691261291503906
aF1.5974044799804688e-05
aF0.00068783760070800781
aF0.0004119873046875
aF1.7881393432617188e-05
aF0.019851922988891602
aF0.021786928176879883
aF7.2956085205078125e-05
aF0.0041048526763916016
aF0.0022189617156982422
aF1.71661376953125e-05
aF0.024657011032104492
aF0.013665914535522461
aF0.00014996528625488281
aF0.0027828216552734375
aF0.00012612342834472656
aF1.9073486328125e-05
aF0.034670114517211914
aF2.002716064453125e-05
aF0.0013430118560791016
aF1.71661376953125e-05
aF0.0035529136657714844
aF4.4107437133789062e-05
aF0.0070719718933105469
aF0.016926050186157227
aF0.00028920173645019531
aF0.00043511390686035156
aF0.0043540000915527344
aF0.00013899803161621094
aF2.002716064453125e-05
aF0.00021100044250488281
aF1.621246337890625e-05
aF7.5101852416992188e-05
aF1.5974044799804688e-05
aF0.0014910697937011719
aF1.6927719116210938e-05
aF0.000946044921875
aF0.00077390670776367188
aF0.00089001655578613281
aF0.00044894218444824219
aF1.7881393432617188e-05
aF0.000926971435546875
aF0.010729074478149414
aF0.0059070587158203125
aF0.011896133422851562
aF0.012890100479125977
aF1.7881393432617188e-05
aF0.0075049400329589844
aF0.0015950202941894531
aF0.00067591667175292969
aF0.0011889934539794922
aF0.0063600540161132812
aF0.0060250759124755859
aF1.7881393432617188e-05
aF0.0015308856964111328
aF0.002696990966796875
aF0.0015270709991455078
aF0.0083250999450683594
aF0.00097918510437011719
aF0.0014209747314453125
aF0.0015530586242675781
aF1.8835067749023438e-05
aF0.002986907958984375
aF4.3153762817382812e-05
aF0.00082492828369140625
aF4.3153762817382812e-05
aF1.811981201171875e-05
aF0.0064520835876464844
aF0.00055813789367675781
aF4.6968460083007812e-05
aF0.0028090476989746094
aF0.000946044921875
aF0.00075411796569824219
aF1.6927719116210938e-05
aF0.0018968582153320312
aF0.0046620368957519531
aF2.5033950805664062e-05
aF0.034530162811279297
aF1.9073486328125e-05
aF0.0015470981597900391
aF0.0032389163970947266
aF0.0017690658569335938
aF0.013170003890991211
aF0.0026807785034179688
aF0.0021679401397705078
aF0.027374029159545898
aF1.8835067749023438e-05
aF0.0065331459045410156
aF0.00010418891906738281
aF0.00095105171203613281
aF0.0026760101318359375
aF0.0028328895568847656
aF0.044688940048217773
aF1.6927719116210938e-05
aF0.041745901107788086
aF1.71661376953125e-05
aF0.012133121490478516
aF0.0033359527587890625
aF0.020235061645507812
aF1.811981201171875e-05
aF0.00556182861328125
aF0.0016291141510009766
aF0.0077290534973144531
aF0.0041019916534423828
aF0.0071420669555664062
aF1.7881393432617188e-05
aF0.0035889148712158203
aF0.0033929347991943359
aF0.0013430118560791016
aF0.000164031982421875
aF0.00096082687377929688
aF0.00049281120300292969
aF3.910064697265625e-05
aF0.0017240047454833984
aF0.00046801567077636719
aF0.00010800361633300781
aF0.00038909912109375
aF0.00083088874816894531
aF1.8835067749023438e-05
aF0.0024900436401367188
aF1.8835067749023438e-05
aF0.0020978450775146484
aF1.8835067749023438e-05
aF0.0031540393829345703
aF0.00014400482177734375
aF1.9073486328125e-05
aF0.0055880546569824219
aF4.6968460083007812e-05
aF4.1961669921875e-05
aF0.0034070014953613281
aF0.0023069381713867188
aF0.0015618801116943359
aF6.5088272094726562e-05
aF0.0029370784759521484
aF0.00226593017578125
aF0.0017111301422119141
aF0.0042049884796142578
aF0.00036978721618652344
aF0.0019068717956542969
aF0.0012619495391845703
aF1.7881393432617188e-05
aF0.0048317909240722656
aF0.0053141117095947266
aF0.0017910003662109375
aF0.015280961990356445
aF0.0019361972808837891
aF1.9073486328125e-05
aF1.6927719116210938e-05
aF0.00029897689819335938
aF1.6927719116210938e-05
aF4.100799560546875e-05
aF1.71661376953125e-05
aF0.0011169910430908203
aF1.621246337890625e-05
aF0.0023961067199707031
aF2.002716064453125e-05
aF0.00022292137145996094
aF2.002716064453125e-05
aF0.009899139404296875
aF0.039806127548217773
aF0.00023388862609863281
aF1.5974044799804688e-05
aF0.0086791515350341797
aF0.032386064529418945
aF0.0057208538055419922
aF0.0045588016510009766
aF0.0040040016174316406
aF0.00016307830810546875
aF4.291534423828125e-05
aF0.0029850006103515625
aF0.0025250911712646484
aF0.0015110969543457031
aF1.8835067749023438e-05
aF0.001155853271484375
aF2.002716064453125e-05
aF0.0021219253540039062
aF1.9073486328125e-05
aF0.033083915710449219
aF0.0188751220703125
aF0.0078260898590087891
aF0.00066113471984863281
aF1.811981201171875e-05
aF0.028208017349243164
aF1.6927719116210938e-05
aF0.032107830047607422
aF0.01494598388671875
aF0.0024049282073974609
aF0.0076839923858642578
aF0.0020029544830322266
aF0.031462907791137695
aF1.9788742065429688e-05
aF0.017539024353027344
aF0.002288818359375
aF0.0011961460113525391
aF0.0050978660583496094
aF0.0019350051879882812
aF0.0023760795593261719
aF4.6968460083007812e-05
aF0.0036349296569824219
aF0.0006999969482421875
aF0.00177001953125
aF1.8835067749023438e-05
aF1.71661376953125e-05
aF0.010588884353637695
aF0.0041978359222412109
aF0.0050101280212402344
aF0.0062870979309082031
aF0.00095605850219726562
aF0.00046586990356445312
aF4.5061111450195312e-05
aF0.00076007843017578125
aF0.0027410984039306641
aF1.811981201171875e-05
aF0.0019960403442382812
aF0.0010480880737304688
aF0.00049996376037597656
aF1.9788742065429688e-05
aF0.00033712387084960938
aF2.4080276489257812e-05
aF0.021372079849243164
aF1.9073486328125e-05
aF0.0039088726043701172
aF0.0012729167938232422
aF1.811981201171875e-05
aF0.0012071132659912109
aF0.00024819374084472656
aF1.71661376953125e-05
aF0.0025110244750976562
aF3.8862228393554688e-05
aF0.0048239231109619141
aF0.0026328563690185547
aF1.6927719116210938e-05
aF0.00012612342834472656
aF1.6927719116210938e-05
aF0.00058913230895996094
asg1314
(lp1344
I123
aI123
aI123
aI123
aI123
aI123
aI1
aI123
aI123
aI123
aI123
aI123
aI123
aI123
aI123
aI123
aI123
aI123
aI123
aI123
aI123
aI1
aI123
aI123
aI123
aI123
aI123
aI123
aI123
aI123
aI123
aI123
aI123
aI123
aI1
aI123
aI123
aI123
aI123
aI123
aI123
aI123
aI123
aI123
aI1
aI123
aI123
aI123
aI123
aI123
aI1
aI123
aI123
aI1
aI1
aI1
aI1
aI123
aI1
aI123
aI1
aI123
aI123
aI1
aI123
aI1
aI123
aI123
aI123
aI123
aI123
aI123
aI123
aI123
aI123
aI123
aI123
aI123
aI123
aI123
aI123
aI1
aI123
aI123
aI123
aI123
aI1
aI123
aI123
aI123
aI123
aI123
aI1
aI123
aI123
aI123
aI123
aI123
aI123
aI123
aI1
aI1
aI123
aI123
aI123
aI123
aI123
aI123
aI123
aI123
aI123
aI123
aI123
aI123
aI123
aI123
aI1
aI123
aI123
aI123
aI123
aI123
aI123
aI123
aI123
aI123
aI123
aI123
aI123
aI123
aI123
aI1
aI123
aI123
aI123
aI123
aI123
aI123
aI1
aI123
aI123
aI123
aI123
aI123
aI123
aI123
aI123
aI123
aI123
aI123
aI1
aI123
aI123
aI123
aI123
aI123
aI123
aI123
aI123
aI123
aI123
aI123
aI123
aI123
aI123
aI123
aI123
aI123
aI123
aI123
aI123
aI123
aI123
aI123
aI123
aI123
aI123
aI123
aI1
aI123
aI1
aI123
aI123
aI123
aI1
aI123
aI123
aI123
aI123
aI123
aI123
aI123
aI123
aI123
aI123
aI123
aI123
aI1
aI123
aI1
aI1
aI123
aI123
aI1
aI123
aI1
aI123
aI123
aI123
aI123
aI123
aI123
aI123
aI123
aI123
aI123
aI123
aI1
aI123
aI123
aI123
aI123
aI123
aI123
aI123
aI1
aI123
aI123
aI123
aI123
aI123
aI1
aI1
aI123
aI1
aI123
aI123
aI123
aI1
aI123
aI123
aI123
aI123
aI123
aI123
aI123
aI1
aI123
aI123
aI123
aI123
aI123
aI123
aI123
aI123
aI123
aI123
aI123
aI123
aI1
aI123
aI123
aI123
aI123
aI123
aI123
aI123
aI123
aI1
aI123
aI123
aI123
aI123
aI123
aI123
aI1
aI123
aI1
aI123
aI123
aI123
aI123
aI123
aI123
aI123
aI123
aI1
aI123
aI123
aI123
aI123
aI123
aI123
aI123
aI1
aI123
aI123
aI1
aI123
aI123
aI123
aI123
aI123
aI123
aI123
aI1
aI123
aI123
aI123
aI123
aI123
aI1
aI123
aI123
aI123
aI123
aI1
aI1
aI1
aI123
asg974
(lp1345
I65
aI0
aI0
aI5
aI188
aI48
aI0
aI34
aI0
aI6
aI14
aI0
aI48
aI0
aI26
aI0
aI45
aI39
aI1
aI2
aI15
aI0
aI1
aI0
aI21
aI1
aI0
aI4
aI0
aI0
aI0
aI31
aI0
aI4
aI0
aI0
aI0
aI10
aI9
aI5
aI0
aI0
aI0
aI2
aI0
aI32
aI33
aI3
aI35
aI1
aI0
aI23
aI1
aI0
aI0
aI0
aI0
aI20
aI0
aI1
aI0
aI0
aI79
aI0
aI28
aI0
aI53
aI25
aI0
aI4
aI6
aI15
aI40
aI25
aI12
aI0
aI37
aI4
aI2
aI1
aI3
aI0
aI6
aI0
aI4
aI3
aI0
aI4
aI2
aI0
aI44
aI32
aI0
aI34
aI11
aI0
aI42
aI32
aI1
aI4
aI0
aI0
aI40
aI0
aI7
aI0
aI4
aI0
aI16
aI33
aI9
aI1
aI21
aI1
aI0
aI2
aI0
aI0
aI0
aI12
aI0
aI4
aI6
aI10
aI4
aI0
aI11
aI107
aI30
aI54
aI89
aI0
aI35
aI13
aI5
aI10
aI23
aI14
aI0
aI7
aI19
aI12
aI44
aI5
aI7
aI15
aI0
aI8
aI0
aI10
aI0
aI0
aI46
aI7
aI0
aI11
aI11
aI3
aI0
aI15
aI19
aI0
aI95
aI0
aI20
aI13
aI10
aI136
aI9
aI30
aI44
aI0
aI41
aI1
aI12
aI19
aI26
aI129
aI0
aI183
aI0
aI61
aI19
aI34
aI0
aI21
aI15
aI23
aI14
aI31
aI0
aI28
aI28
aI16
aI0
aI6
aI4
aI0
aI15
aI0
aI0
aI1
aI7
aI0
aI2
aI0
aI21
aI0
aI3
aI1
aI0
aI14
aI0
aI0
aI17
aI22
aI10
aI0
aI17
aI10
aI15
aI11
aI1
aI2
aI1
aI0
aI17
aI9
aI15
aI32
aI8
aI0
aI0
aI2
aI0
aI0
aI0
aI2
aI0
aI8
aI0
aI1
aI0
aI33
aI41
aI1
aI0
aI28
aI215
aI30
aI24
aI11
aI2
aI0
aI31
aI18
aI21
aI0
aI7
aI0
aI5
aI0
aI132
aI87
aI14
aI1
aI0
aI184
aI0
aI114
aI39
aI12
aI39
aI4
aI72
aI0
aI60
aI0
aI14
aI19
aI2
aI23
aI0
aI7
aI3
aI2
aI0
aI0
aI59
aI30
aI17
aI23
aI9
aI3
aI0
aI6
aI21
aI0
aI16
aI12
aI5
aI0
aI3
aI0
aI156
aI0
aI35
aI3
aI0
aI11
aI1
aI0
aI0
aI0
aI22
aI5
aI0
aI0
aI0
aI1
asg648
(lp1346
I5
aI0
aI0
aI1
aI1
aI1
aI0
aI1
aI0
aI2
aI1
aI0
aI1
aI0
aI1
aI0
aI1
aI2
aI3
aI1
aI1
aI0
aI1
aI0
aI8
aI2
aI0
aI1
aI0
aI0
aI0
aI1
aI0
aI1
aI0
aI0
aI0
aI1
aI1
aI1
aI0
aI0
aI0
aI1
aI0
aI1
aI2
aI1
aI1
aI1
aI0
aI1
aI8
aI0
aI0
aI0
aI0
aI1
aI0
aI15
aI0
aI0
aI1
aI0
aI2
aI0
aI1
aI1
aI0
aI3
aI4
aI3
aI1
aI1
aI1
aI0
aI16
aI2
aI1
aI1
aI1
aI0
aI1
aI0
aI3
aI2
aI0
aI1
aI2
aI0
aI1
aI1
aI0
aI2
aI1
aI0
aI2
aI1
aI1
aI1
aI0
aI0
aI1
aI0
aI1
aI0
aI4
aI0
aI2
aI1
aI1
aI2
aI3
aI1
aI0
aI1
aI0
aI0
aI0
aI3
aI0
aI2
aI1
aI1
aI1
aI0
aI1
aI1
aI1
aI1
aI1
aI0
aI1
aI1
aI1
aI1
aI1
aI2
aI0
aI1
aI1
aI1
aI1
aI1
aI1
aI1
aI0
aI1
aI0
aI1
aI0
aI0
aI1
aI1
aI0
aI2
aI1
aI1
aI0
aI1
aI2
aI0
aI1
aI0
aI1
aI1
aI1
aI1
aI1
aI1
aI1
aI0
aI1
aI1
aI1
aI1
aI1
aI1
aI0
aI1
aI0
aI1
aI1
aI1
aI0
aI1
aI1
aI1
aI1
aI1
aI0
aI1
aI1
aI2
aI0
aI1
aI1
aI0
aI1
aI0
aI0
aI2
aI1
aI0
aI1
aI0
aI1
aI0
aI1
aI1
aI0
aI1
aI0
aI0
aI3
aI1
aI1
aI0
aI1
aI1
aI1
aI3
aI1
aI2
aI1
aI0
aI1
aI1
aI1
aI1
aI1
aI0
aI0
aI2
aI0
aI0
aI0
aI7
aI0
aI3
aI0
aI3
aI0
aI1
aI1
aI2
aI0
aI1
aI1
aI1
aI1
aI1
aI1
aI0
aI2
aI1
aI1
aI0
aI1
aI0
aI1
aI0
aI1
aI1
aI1
aI1
aI0
aI1
aI0
aI1
aI1
aI1
aI1
aI1
aI1
aI0
aI1
aI0
aI1
aI1
aI1
aI1
aI0
aI1
aI1
aI1
aI0
aI0
aI1
aI1
aI2
aI1
aI1
aI1
aI0
aI1
aI1
aI0
aI1
aI1
aI1
aI0
aI1
aI0
aI1
aI0
aI1
aI2
aI0
aI1
aI3
aI0
aI0
aI0
aI1
aI1
aI0
aI0
aI0
aI1
asg984
(lp1347
F0.36069633215416125
aF0
aF0
aF0.16999999999999998
aF0.63464822977498347
aF0.34655143196068466
aI1
aF0.56163155535634246
aF0
aF0.37916666666666671
aF0.37500000000000006
aF0
aF0.42857142857142849
aF0
aF0.55350140056022412
aF0
aF0.55421669020715625
aF0.79597788791460156
aF0.64285714285714279
aF0.32000000000000001
aF0.62896825396825395
aI1
aF0.75
aF0
aF0.4403858317520557
aF0.8928571428571429
aF0
aF0.65454545454545454
aF0
aF0
aF0
aF0.54450520833333338
aF0
aF0.32000000000000001
aI1
aF0
aF0
aF0.50793650793650791
aF0.52834008097165985
aF0.38636363636363635
aF0
aF0
aF0
aF0.5
aI1
aF0.90299736495388672
aF0.50477385297184574
aF0.96249999999999991
aF0.78577097505668936
aF0.75
aI1
aF0.78045977011494261
aF0.265625
aI1
aI1
aI1
aI1
aF0.84183845893883069
aI1
aF0.083806818181818191
aI1
aF0
aF0.77081797437247668
aI1
aF0.57933485656257944
aI1
aF0.8812241200828157
aF0.20180809165771571
aF0
aF0.20833333333333331
aF0.44615384615384612
aF0.41006811409110261
aF0.78560674495633842
aF0.5866483283961067
aF0.26437346437346437
aF0
aF0.31217830882352948
aF0.23232323232323232
aF0.27777777777777779
aF0.29166666666666669
aF0.37500000000000006
aI1
aF0.31688311688311688
aF0
aF0.35937500000000006
aF0.32407407407407407
aI1
aF0.41964285714285715
aF0.26666666666666672
aF0
aF0.80577235772357725
aF0.94078330206378991
aI1
aF0.78543417366946777
aF0.893388429752066
aF0
aF0.56708980016859223
aF0.48130563798219583
aF0.29166666666666669
aF0.93939393939393945
aI1
aI1
aF0.85012609583283294
aF0
aF0.2918367346938775
aF0
aF0.17473118279569891
aF0
aF0.33591836734693875
aF0.85756540576570572
aF0.60520833333333335
aF0.4375
aF0.68138379204892963
aF0.41666666666666669
aF0
aF0.39999999999999997
aI1
aF0
aF0
aF0.37560386473429946
aF0
aF0.15810276679841898
aF0.2807017543859649
aF0.36281179138321989
aF0.4081632653061224
aF0
aF0.3928571428571429
aF0.34901878849784879
aF0.34330497089117779
aF0.53787484187811596
aF0.68116258741258739
aI1
aF0.89786096256684489
aF0.6640625
aF0.3203125
aF0.3462732919254658
aF0.25119874338624343
aF0.57939787485242034
aI1
aF0.44285714285714284
aF0.44682459677419351
aF0.39931350114416475
aF0.26511661914162465
aF0.51420454545454541
aF0.43055555555555547
aF0.34227941176470583
aF0
aF0.21326013513513514
aF0
aF0.63636363636363635
aI1
aF0
aF0.36148195464707761
aF0.43388429752066116
aF0
aF0.77462121212121204
aF0.45833333333333343
aF0.29738562091503268
aF0
aF0.38514492753623192
aF0.39690170940170938
aF0
aF0.76717260731430159
aF0
aF0.48974358974358972
aF0.77195121951219514
aF0.6037414965986394
aF0.34062042538534398
aF0.82936507936507931
aF0.56481481481481488
aF0.79427143853125726
aF0
aF0.24730680199430197
aF0.27777777777777779
aF0.38563327032136108
aF0.31298276886512183
aF0.48263118994826315
aF0.77507832080200501
aI1
aF0.39994424272095519
aI1
aF0.72759163802978233
aF0.37363088718510407
aF0.88494687131050775
aI1
aF0.73299270072992695
aF0.69679054054054057
aF0.23776484126446895
aF0.8547854785478548
aF0.44960653753026636
aF0
aF0.53557744937055285
aF0.73397052966945442
aF0.36527514231499048
aF0
aF0.54545454545454541
aF0.81818181818181812
aI1
aF0.41477272727272724
aI1
aI1
aF0.25
aF0.42361111111111116
aI1
aF0.65573770491803274
aI1
aF0.46741637831603228
aF0
aF0.96222222222222231
aF0.375
aF0
aF0.16623725775736531
aF0
aF0
aF0.32473420888055032
aF0.47273589378852537
aF0.321978021978022
aI1
aF0.48057309373482271
aF0.79245283018867929
aF0.33578431372549017
aF0.88343834383438347
aF0.98863636363636365
aF0.95652173913043481
aF0.49193548387096775
aI1
aF0.86538461538461542
aF0.6136621315192744
aF0.6887626262626263
aF0.91281669150521616
aF0.80614657210401885
aI1
aI1
aF0.22916666666666666
aI1
aF0
aF0
aF0.6607142857142857
aI1
aF0.84669811320754718
aF0
aF0.58333333333333337
aF0
aF0.32417837949565942
aF0.83019607843137255
aF0.8928571428571429
aI1
aF0.24698340874811464
aF0.25099083737678907
aF0.48275862068965519
aF0.58849557522123896
aF0.2397727272727273
aF0.49999999999999994
aF0
aF0.42097919837645864
aF0.7191489361702128
aF0.453125
aF0
aF0.7693965517241379
aI1
aF0.79248366013071891
aF0
aF0.40378491054023274
aF0.44716775599128539
aF0.91954887218045112
aF0.97058823529411764
aF0
aF0.46959681081899385
aI1
aF0.67174551985957465
aF0.7897763375270046
aF0.59313725490196079
aF0.1876080125687353
aF0.92441860465116277
aF0.62815570672713528
aI1
aF0.56888421846792225
aI1
aF0.55000000000000004
aF0.7420403971242725
aF0.95833333333333326
aF0.47628205128205126
aF0
aF0.73243933588761179
aF0.26923076923076922
aF0.92682926829268297
aI1
aF0
aF0.246184012066365
aF0.45118047218887558
aF0.85077145612343297
aF0.43088888888888882
aF0.63863636363636367
aF0.73611111111111105
aI1
aF0.43749999999999994
aF0.69993412384716724
aI1
aF0.53826530612244894
aF0.64857142857142858
aF0.33916083916083917
aF0
aF0.3571428571428571
aF0
aF0.39186996981891348
aI1
aF0.62363591269841279
aF0.921875
aF0
aF0.44473684210526315
aF0.29166666666666669
aI1
aF0
aF0
aF0.24587723316536877
aF0.9609375
aI1
aI1
aI1
aF0.96875
asssg1323
(lp1348
F0.51145038167938928
aF0
aF0
aF0.59259259259259256
aF0.51882845188284521
aF0.48571428571428571
aI1
aF0.36956521739130432
aF0
aF0.33333333333333331
aF0.5
aF0
aF0.47619047619047616
aF0
aF0.51428571428571423
aF0
aF0.54166666666666663
aF0.39534883720930231
aF0
aF0.40000000000000002
aF0.55555555555555558
aI1
aF1
aF0
aF0.55882352941176472
aF1
aF0
aF0.40000000000000002
aF0
aF0
aF0
aF0.47999999999999998
aF0
aF0.59999999999999998
aI1
aF1
aF0
aF0.59999999999999998
aF0.53846153846153844
aF0.40000000000000002
aF0
aF0
aF0
aF0.66666666666666663
aI1
aF0.51515151515151514
aF0.4642857142857143
aF0.66666666666666663
aF0.31428571428571428
aF1
aI1
aF0.64000000000000001
aF1
aI1
aI1
aI1
aI1
aF0.54545454545454541
aI1
aF0.5
aI1
aF0
aF0.53333333333333333
aI1
aF0.58974358974358976
aI1
aF0.4642857142857143
aF0.44761904761904764
aF0
aF0.40000000000000002
aF0.80000000000000004
aF0.44444444444444442
aF0.65853658536585369
aF0.55882352941176472
aF0.48648648648648651
aF0
aF0.51249999999999996
aF0.72727272727272729
aF0.5
aF0.33333333333333331
aF0.5
aI1
aF0.42857142857142855
aF0
aF0.625
aF0.5
aI1
aF0.375
aF0.59999999999999998
aF0
aF0.40000000000000002
aF0.5625
aI1
aF0.52941176470588236
aF0.72727272727272729
aF0
aF0.52238805970149249
aF0.53333333333333333
aF0.33333333333333331
aF0.5
aI1
aI1
aF0.5
aF0
aF0.5714285714285714
aF0
aF0.61111111111111116
aF0
aF0.38095238095238093
aF0.61764705882352944
aF0.58333333333333337
aF0
aF0.45833333333333331
aF0.5
aF0
aF0.25
aI1
aF1
aF0
aF0.52173913043478259
aF0
aF0.59090909090909094
aF0.5
aF0.47619047619047616
aF0.5714285714285714
aF0
aF0.52380952380952384
aF0.46280991735537191
aF0.45454545454545453
aF0.5280898876404494
aF0.51818181818181819
aI1
aF0.5714285714285714
aF0.625
aF0.5
aF0.60869565217391308
aF0.58333333333333337
aF0.59090909090909094
aI1
aF0.69230769230769229
aF0.4838709677419355
aF0.47826086956521741
aF0.47517730496453903
aF0.5
aF0.61538461538461542
aF0.47058823529411764
aF0
aF0.75
aF0
aF0.81818181818181823
aI1
aF0
aF0.47524752475247523
aF0.81818181818181823
aF0
aF0.41666666666666669
aF0.55555555555555558
aF0.55555555555555558
aF0
aF0.59999999999999998
aF0.47499999999999998
aF0
aF0.42990654205607476
aF0
aF0.6333333333333333
aF0.53333333333333333
aF0.6428571428571429
aF0.48639455782312924
aF0.40000000000000002
aF0.28125
aF0.44230769230769229
aF0
aF0.50694444444444442
aF0.33333333333333331
aF0.47826086956521741
aF0.50980392156862742
aF0.6097560975609756
aF0.49333333333333335
aI1
aF0.49606299212598426
aI1
aF0.45833333333333331
aF0.70454545454545459
aF0.48571428571428571
aI1
aF0.56000000000000005
aF0.25
aF0.49367088607594939
aF0.59999999999999998
aF0.39285714285714285
aF0
aF0.54761904761904767
aF0.70967741935483875
aF0.5161290322580645
aF1
aF0.88888888888888884
aF1
aI1
aF0.65384615384615385
aI1
aI1
aF0.33333333333333331
aF0.75
aI1
aF0.66666666666666663
aI1
aF0.6470588235294118
aF0
aF0
aF0.5
aF0
aF0.45569620253164556
aF0
aF0
aF0.66666666666666663
aF0.56756756756756754
aF0.57692307692307687
aI1
aF0.58620689655172409
aF0.63636363636363635
aF0.58823529411764708
aF0.63636363636363635
aF1
aF0
aF0.5
aI1
aF0.55555555555555558
aF0.5714285714285714
aF0.66666666666666663
aF0.66666666666666663
aF0.22222222222222221
aI1
aI1
aF0.5
aI1
aF0
aF0
aF0.5
aI1
aF0.375
aF0
aF1
aF0
aF0.48780487804878048
aF0.51111111111111107
aF1
aI1
aF0.51960784313725494
aF0.51510574018126887
aF0.37735849056603776
aF0.52777777777777779
aF0.40000000000000002
aF0.66666666666666663
aF0
aF0.5
aF0.65000000000000002
aF0.53125
aF0
aF0.75
aI1
aF0.33333333333333331
aF0
aF0.52091254752851712
aF0.50326797385620914
aF0.7142857142857143
aF0
aF0
aF0.51342281879194629
aI1
aF0.48854961832061067
aF0.53488372093023251
aF0.52941176470588236
aF0.54477611940298509
aF0.5
aF0.55555555555555558
aI1
aF0.5056179775280899
aI1
aF0.72222222222222221
aF0.47826086956521741
aF1
aF0.48717948717948717
aF0
aF0.66666666666666663
aF0.7142857142857143
aF0.5
aI1
aF0
aF0.47692307692307695
aF0.42857142857142855
aF0.52941176470588236
aF0.48888888888888887
aF0.80000000000000004
aF0.66666666666666663
aI1
aF0.59999999999999998
aF0.39130434782608697
aI1
aF0.45833333333333331
aF0.5714285714285714
aF0.45454545454545453
aF0
aF0.42857142857142855
aF0
aF0.49687500000000001
aI1
aF0.59523809523809523
aF0
aF0
aF0.42105263157894735
aF0.5
aI1
aF0
aF0
aF0.51351351351351349
aF0.20000000000000001
aI1
aI1
aI1
aF0
asS'depth'
p1349
Ns.