(dp1
S'avg_precision'
p2
(lp3
I1
aI1
aI123
aI123
aI1
aI1
aI123
aI123
aI1
aI123
aI123
aI123
aI123
aI123
aI1
aI1
aI123
aI123
aI1
aI1
aI1
aI1
aI123
aI123
aI1
aI1
aI1
aI1
aI1
aI123
aI123
aI123
aI123
aI123
aI123
aI123
aI1
aI123
aI123
aI123
aI123
aI123
aI1
aI1
aI123
aI1
aI1
aI1
aI1
aI123
aI123
aI123
aI1
aI1
aI123
aI1
aI1
aI1
aI1
aI1
aI123
aI123
aI123
aI123
aI123
aI123
aI123
aI123
aI1
aI1
aI1
aI1
aI1
aI1
aI1
aI1
aI1
aI123
aI1
aI123
aI1
aI1
aI123
aI123
aI123
aI123
aI1
aI1
aI123
aI123
aI1
aI1
aI1
aI123
aI1
aI1
aI1
aI123
aI123
aI123
aI123
aI123
aI123
aI123
aI1
aI1
aI1
aI123
aI123
aI123
aI123
aI1
aI1
aI123
aI123
aI1
aI1
aI1
aI1
aI1
aI1
aI1
aI123
aI123
aI1
aI1
aI1
aI1
aI1
aI123
aI1
aI1
aI1
aI1
aI1
aI1
aI123
aI123
aI123
aI123
aI123
aI123
aI123
aI123
aI123
aI123
aI1
aI1
aI123
aI123
aI123
aI123
aI1
aI123
aI123
aI123
aI123
aI123
aI123
aI123
aI123
aI123
aI123
aI123
aI123
aI123
aI123
aI123
aI123
aI123
aI123
aI123
aI123
aI123
aI123
aI123
aI123
aI123
aI123
aI123
aI123
aI123
aI123
aI123
aI123
aI123
aI123
aI123
aI123
aI123
aI1
aI1
aI123
aI123
aI123
aI123
aI123
aI1
aI123
aI123
aI123
aI123
aI123
aI123
aI123
aI123
aI123
aI123
aI123
aI1
aI123
aI1
aI123
aI123
aI123
aI123
aI123
aI123
aI123
aI123
aI123
aI123
aI123
aI123
aI123
aI123
aI123
aI123
aI123
aI123
aI123
aI123
aI123
aI123
aI123
aI123
aI123
aI123
aI123
aI123
aI123
aI123
aI123
aI123
aI123
aI123
aI123
aI123
aI123
aI123
aI123
aI123
aI123
aI123
aI123
aI123
aI123
aI123
aI123
aI123
aI123
aI123
aI123
aI123
aI123
aI123
aI123
aI123
aI123
aI123
aI123
aI123
aI123
aI123
aI123
aI123
aI123
aI123
aI123
aI123
aI123
aI123
aI123
aI123
aI123
aI123
aI123
aI123
aI123
aI123
aI123
aI123
aI123
aI123
aI123
aI123
aI123
aI1
aI1
aI123
aI1
aI1
aI1
aI1
aI1
aI1
aI123
aI123
aI123
aI123
aI123
aI123
aI123
aI123
aI123
aI123
aI123
aI123
aI123
aI1
aI123
aI123
aI123
aI123
aI123
aI123
aI123
aI123
aI123
aI123
aI123
aI123
aI1
aI123
aI1
aI123
aI123
aI123
aI123
aI123
aI123
aI1
aI123
aI123
aI123
aI1
aI123
aI123
aI123
aI1
aI123
aI123
asS'rewards'
p4
(lp5
cnumpy.core.multiarray
scalar
p6
(cnumpy
dtype
p7
(S'f8'
I0
I1
tRp8
(I3
S'<'
NNNI-1
I-1
I0
tbS'\x00\x00\x00\x00\x00\x00\x00\x00'
tRp9
ag6
(g8
S'\x00\x00\x00\x00\x00\x00\x00\x00'
tRp10
ag6
(g8
S'\x00\x00\x00\x00\x00\x00\x00\x00'
tRp11
ag6
(g8
S'\x00\x00\x00\x00\x00\x00\x00\x00'
tRp12
ag6
(g8
S'\x00\x00\x00\x00\x00\x00\x00\x00'
tRp13
ag6
(g8
S'\x00\x00\x00\x00\x00\x00\x00\x00'
tRp14
ag6
(g8
S'\x00\x00\x00\x00\x00\x00\x00\x00'
tRp15
ag6
(g8
S'\x00\x00\x00\x00\x00\x00\x00\x00'
tRp16
ag6
(g8
S'\x00\x00\x00\x00\x00\x00\x00\x00'
tRp17
ag6
(g8
S'\x00\x00\x00\x00\x00\x00\x00\x00'
tRp18
ag6
(g8
S'\x94\xba/\x8f\xad\x08\xaa?'
tRp19
ag6
(g8
S'\x17l\xc1\x16l\xc1\x86?'
tRp20
ag6
(g8
S'\x00\x00\x00\x00\x00\x00\x00\x00'
tRp21
ag6
(g8
S'\x00\x00\x00\x00\x00\x00\x00\x00'
tRp22
ag6
(g8
S'\x00\x00\x00\x00\x00\x00\x00\x00'
tRp23
ag6
(g8
S'\x00\x00\x00\x00\x00\x00\x00\x00'
tRp24
ag6
(g8
S'\x00\x00\x00\x00\x00\x00\x00\x00'
tRp25
ag6
(g8
S'\x08\x1f|\xf0\xc1\x07\x9f?'
tRp26
ag6
(g8
S'\x00\x00\x00\x00\x00\x00\x00\x00'
tRp27
ag6
(g8
S'\x00\x00\x00\x00\x00\x00\x00\x00'
tRp28
ag6
(g8
S'\x00\x00\x00\x00\x00\x00\x00\x00'
tRp29
ag6
(g8
S'\x00\x00\x00\x00\x00\x00\x00\x00'
tRp30
ag6
(g8
S'\x00\x00\x00\x00\x00\x00\x00\x00'
tRp31
ag6
(g8
S'\x00\x00\x00\x00\x00\x00\x00\x00'
tRp32
ag6
(g8
S'\x00\x00\x00\x00\x00\x00\x00\x00'
tRp33
ag6
(g8
S'\x00\x00\x00\x00\x00\x00\x00\x00'
tRp34
ag6
(g8
S'\x00\x00\x00\x00\x00\x00\x00\x00'
tRp35
ag6
(g8
S'\x00\x00\x00\x00\x00\x00\x00\x00'
tRp36
ag6
(g8
S'\x00\x00\x00\x00\x00\x00\x00\x00'
tRp37
ag6
(g8
S'\x00\x00\x00\x00\x00\x00\x00\x00'
tRp38
ag6
(g8
S'\x00\x00\x00\x00\x00\x00\x00\x00'
tRp39
ag6
(g8
S'\x9a\x99\x99\x99\x99\x99y?'
tRp40
ag6
(g8
S'4\xf9\xb2A\x93/\x9b?'
tRp41
ag6
(g8
S'wwwwww\xd7?'
tRp42
ag6
(g8
S'\xe7\x9cs\xce9\xe7\xdc?'
tRp43
ag6
(g8
S'\xf7\x12\xdaKh/\xe1?'
tRp44
ag6
(g8
S'\x00\x00\x00\x00\x00\x00\x00\x00'
tRp45
ag6
(g8
S'\xc6\x18c\x8c1\xc6\xa8?'
tRp46
ag6
(g8
S'\x00\x00\x00\x00\x00\x00\x00\x00'
tRp47
ag6
(g8
S'\xb7m\xdb\xb6m\xdb\xce?'
tRp48
ag6
(g8
S'\x87\x1f\xd5%f-\x84?'
tRp49
ag6
(g8
S'\x00\x00\x00\x00\x00\x00\x00\x00'
tRp50
ag6
(g8
S'\x00\x00\x00\x00\x00\x00\x00\x00'
tRp51
ag6
(g8
S'\x00\x00\x00\x00\x00\x00\x00\x00'
tRp52
ag6
(g8
S'\xc2\x14\xf9\xac\x1bL\xb1?'
tRp53
ag6
(g8
S'\x00\x00\x00\x00\x00\x00\x00\x00'
tRp54
ag6
(g8
S'\x00\x00\x00\x00\x00\x00\x00\x00'
tRp55
ag6
(g8
S'\x00\x00\x00\x00\x00\x00\x00\x00'
tRp56
ag6
(g8
S'\x00\x00\x00\x00\x00\x00\x00\x00'
tRp57
ag6
(g8
S'\x02\xa9\xe4\xbc,\xe2\x83?'
tRp58
ag6
(g8
S'*\xf2Y7\x98"\xbf?'
tRp59
ag6
(g8
S'\xa0Q\xe2g\x94\xf8\xd9?'
tRp60
ag6
(g8
S'\x00\x00\x00\x00\x00\x00\x00\x00'
tRp61
ag6
(g8
S'\x00\x00\x00\x00\x00\x00\x00\x00'
tRp62
ag6
(g8
S'\x9a\x99\x99\x99\x99\x99\x89?'
tRp63
ag6
(g8
S'\x00\x00\x00\x00\x00\x00\x00\x00'
tRp64
ag6
(g8
S'\x00\x00\x00\x00\x00\x00\x00\x00'
tRp65
ag6
(g8
S'\x00\x00\x00\x00\x00\x00\x00\x00'
tRp66
ag6
(g8
S'\x00\x00\x00\x00\x00\x00\x00\x00'
tRp67
ag6
(g8
S'\x00\x00\x00\x00\x00\x00\x00\x00'
tRp68
ag6
(g8
S'\x00\x00\x00\x00\x00\x00\x00\x00'
tRp69
ag6
(g8
S'\x0b\x9b\x03\x89V\xd8\x8c?'
tRp70
ag6
(g8
S'(\xaf\xa1\xbc\x86\xf2\x8a?'
tRp71
ag6
(g8
S'\x0b\x9b\x03\x89V\xd8\x8c?'
tRp72
ag6
(g8
S'\x00\x00\x00\x00\x00\x00\xb8?'
tRp73
ag6
(g8
S'W\x10\x93+\x88\xc9\x95?'
tRp74
ag6
(g8
S'\x00\x00\x00\x00\x00\x00\x00\x00'
tRp75
ag6
(g8
S'O\x1b\xe8\xb4\x81N\x8b?'
tRp76
ag6
(g8
S'\x00\x00\x00\x00\x00\x00\x00\x00'
tRp77
ag6
(g8
S'\x00\x00\x00\x00\x00\x00\x00\x00'
tRp78
ag6
(g8
S'\x00\x00\x00\x00\x00\x00\x00\x00'
tRp79
ag6
(g8
S'\x00\x00\x00\x00\x00\x00\x00\x00'
tRp80
ag6
(g8
S'\x00\x00\x00\x00\x00\x00\x00\x00'
tRp81
ag6
(g8
S'\x00\x00\x00\x00\x00\x00\x00\x00'
tRp82
ag6
(g8
S'\x00\x00\x00\x00\x00\x00\x00\x00'
tRp83
ag6
(g8
S'\x00\x00\x00\x00\x00\x00\x00\x00'
tRp84
ag6
(g8
S'\x00\x00\x00\x00\x00\x00\x00\x00'
tRp85
ag6
(g8
S'\x1d\xd4A\x1d\xd4A\x9d?'
tRp86
ag6
(g8
S'\x00\x00\x00\x00\x00\x00\x00\x00'
tRp87
ag6
(g8
S'\xd0\xba\xc1\x14\xf9\xac\x8b?'
tRp88
ag6
(g8
S'\x00\x00\x00\x00\x00\x00\x00\x00'
tRp89
ag6
(g8
S'\x00\x00\x00\x00\x00\x00\x00\x00'
tRp90
ag6
(g8
S'\x0ex\xfc\xe1\x80\xc7\xdf?'
tRp91
ag6
(g8
S'\xc9g\xdd`\x8a|\xe6?'
tRp92
ag6
(g8
S'\xc9g\xdd`\x8a|\xe6?'
tRp93
ag6
(g8
S'\xc9g\xdd`\x8a|\xe6?'
tRp94
ag6
(g8
S'\x00\x00\x00\x00\x00\x00\x00\x00'
tRp95
ag6
(g8
S'\x00\x00\x00\x00\x00\x00\x00\x00'
tRp96
ag6
(g8
S'(\xaf\xa1\xbc\x86\xf2\x8a?'
tRp97
ag6
(g8
S'^Cy\r\xe55\xb4?'
tRp98
ag6
(g8
S'\x00\x00\x00\x00\x00\x00\x00\x00'
tRp99
ag6
(g8
S'\x00\x00\x00\x00\x00\x00\x00\x00'
tRp100
ag6
(g8
S'\x00\x00\x00\x00\x00\x00\x00\x00'
tRp101
ag6
(g8
S'\xd0\xba\xc1\x14\xf9\xac\x8b?'
tRp102
ag6
(g8
S'\x00\x00\x00\x00\x00\x00\x00\x00'
tRp103
ag6
(g8
S'\x00\x00\x00\x00\x00\x00\x00\x00'
tRp104
ag6
(g8
S'\x00\x00\x00\x00\x00\x00\x00\x00'
tRp105
ag6
(g8
S'\xe8\xb4\x81N\x1b\xe8\xe4?'
tRp106
ag6
(g8
S'l(\xaf\xa1\xbc\x86\xe2?'
tRp107
ag6
(g8
S'Cy\r\xe55\x94\xd7?'
tRp108
ag6
(g8
S'\xf3\x1a\xcak(\xaf\xe1?'
tRp109
ag6
(g8
S'l(\xaf\xa1\xbc\x86\xe2?'
tRp110
ag6
(g8
S'\xa2\xbc\x86\xf2\x1a\xca\xe3?'
tRp111
ag6
(g8
S'\x14\x14\x14\x14\x14\x14\x84?'
tRp112
ag6
(g8
S'\x00\x00\x00\x00\x00\x00\x00\x00'
tRp113
ag6
(g8
S'\x00\x00\x00\x00\x00\x00\x00\x00'
tRp114
ag6
(g8
S'\x00\x00\x00\x00\x00\x00\x00\x00'
tRp115
ag6
(g8
S'O\x1b\xe8\xb4\x81N\x8b?'
tRp116
ag6
(g8
S'(\xaf\xa1\xbc\x86\xf2\x8a?'
tRp117
ag6
(g8
S'(\xaf\xa1\xbc\x86\xf2\x8a?'
tRp118
ag6
(g8
S'\xbecj`\xef\x98\x8a?'
tRp119
ag6
(g8
S'\x00\x00\x00\x00\x00\x00\x00\x00'
tRp120
ag6
(g8
S'\x00\x00\x00\x00\x00\x00\x00\x00'
tRp121
ag6
(g8
S'\x1a\xa4A\x1a\xa4A\x9a?'
tRp122
ag6
(g8
S'\x00\x00\x00\x00\x00\x00\x00\x00'
tRp123
ag6
(g8
S'\x00\x00\x00\x00\x00\x00\x00\x00'
tRp124
ag6
(g8
S'\x00\x00\x00\x00\x00\x00\x00\x00'
tRp125
ag6
(g8
S'\x00\x00\x00\x00\x00\x00\x00\x00'
tRp126
ag6
(g8
S'\x00\x00\x00\x00\x00\x00\x00\x00'
tRp127
ag6
(g8
S'\x00\x00\x00\x00\x00\x00\x00\x00'
tRp128
ag6
(g8
S'\x00\x00\x00\x00\x00\x00\x00\x00'
tRp129
ag6
(g8
S'\x00\x00\x00\x00\x00\x00\x00\x00'
tRp130
ag6
(g8
S'\x94\xd7P^Cy\xe5?'
tRp131
ag6
(g8
S'\r\xe55\x94\xd7P\xe6?'
tRp132
ag6
(g8
S'\x00\x00\x00\x00\x00\x00\x00\x00'
tRp133
ag6
(g8
S'\x00\x00\x00\x00\x00\x00\x00\x00'
tRp134
ag6
(g8
S'\x00\x00\x00\x00\x00\x00\x00\x00'
tRp135
ag6
(g8
S'\x00\x00\x00\x00\x00\x00\x00\x00'
tRp136
ag6
(g8
S'\x00\x00\x00\x00\x00\x00\x00\x00'
tRp137
ag6
(g8
S'\xba5?,R\x06\xde?'
tRp138
ag6
(g8
S'\x00\x00\x00\x00\x00\x00\x00\x00'
tRp139
ag6
(g8
S'\x00\x00\x00\x00\x00\x00\x00\x00'
tRp140
ag6
(g8
S'\x00\x00\x00\x00\x00\x00\x00\x00'
tRp141
ag6
(g8
S'\x00\x00\x00\x00\x00\x00\x00\x00'
tRp142
ag6
(g8
S'\x00\x00\x00\x00\x00\x00\x00\x00'
tRp143
ag6
(g8
S'\x00\x00\x00\x00\x00\x00\x00\x00'
tRp144
ag6
(g8
S'\x00\x00\x00\x00\x00\x00\x00\x00'
tRp145
ag6
(g8
S'(\xaf\xa1\xbc\x86\xf2\x9a?'
tRp146
ag6
(g8
S'\x1c\xc7q\x1c\xc7q\x8c?'
tRp147
ag6
(g8
S'\x1a\xa4A\x1a\xa4A\x8a?'
tRp148
ag6
(g8
S'\xbecj`\xef\x98\x9a?'
tRp149
ag6
(g8
S'\xd0\xba\xc1\x14\xf9\xac\x8b?'
tRp150
ag6
(g8
S'\xd93\x10\x95\x8e\xec\x89?'
tRp151
ag6
(g8
S'(\xaf\xa1\xbc\x86\xf2\x8a?'
tRp152
ag6
(g8
S'\x00\x00\x00\x00\x00\x00\x00\x00'
tRp153
ag6
(g8
S'\x00\x00\x00\x00\x00\x00\x00\x00'
tRp154
ag6
(g8
S'\x00\x00\x00\x00\x00\x00\x00\x00'
tRp155
ag6
(g8
S'\x00\x00\x00\x00\x00\x00\x00\x00'
tRp156
ag6
(g8
S'\xe9\xa2\x8b.\xba\xe8\xe2?'
tRp157
ag6
(g8
S'\xcak(\xaf\xa1\xbc\xd6?'
tRp158
ag6
(g8
S'(\xaf\xa1\xbc\x86\xf2\xda?'
tRp159
ag6
(g8
S'O\x1b\xe8\xb4\x81N\xdb?'
tRp160
ag6
(g8
S'\x00\x00\x00\x00\x00\x00\x00\x00'
tRp161
ag6
(g8
S'\x00\x00\x00\x00\x00\x00\x00\x00'
tRp162
ag6
(g8
S'\x00\x00\x00\x00\x00\x00\x00\x00'
tRp163
ag6
(g8
S'\x84\x10B\x08!\x84\xc0?'
tRp164
ag6
(g8
S'\x00\x00\x00\x00\x00\x00\x00\x00'
tRp165
ag6
(g8
S'\x00\x00\x00\x00\x00\x00\x00\x00'
tRp166
ag6
(g8
S'\x00\x00\x00\x00\x00\x00\x00\x00'
tRp167
ag6
(g8
S'\x00\x00\x00\x00\x00\x00\x00\x00'
tRp168
ag6
(g8
S'\x00\x00\x00\x00\x00\x00\x00\x00'
tRp169
ag6
(g8
S'\xbecj`\xef\x98\x8a?'
tRp170
ag6
(g8
S'\x04\xf7\x11\xdcGp\xdf?'
tRp171
ag6
(g8
S'\xbfX\xf2\x8b%\xbf\xd8?'
tRp172
ag6
(g8
S'\xde\xdd\xdd\xdd\xdd\xdd\xdd?'
tRp173
ag6
(g8
S'y\r\xe55\x94\xd7\xe0?'
tRp174
ag6
(g8
S'dp>\x06\xe7c\xe0?'
tRp175
ag6
(g8
S'V~B\x9c\x95\x9f\xe0?'
tRp176
ag6
(g8
S'S\xe4\xb3n0E\xde?'
tRp177
ag6
(g8
S'd!\x0bY\xc8B\xd6?'
tRp178
ag6
(g8
S'\x92$I\x92$I\xb2?'
tRp179
ag6
(g8
S'\x00\x00\x00\x00\x00\x00\xc4?'
tRp180
ag6
(g8
S'\x1a\xa4A\x1a\xa4A\x9a?'
tRp181
ag6
(g8
S'\xbecj`\xef\x98\x8a?'
tRp182
ag6
(g8
S'\x1a\xa4A\x1a\xa4A\x8a?'
tRp183
ag6
(g8
S'\xd0\xba\xc1\x14\xf9\xac\x8b?'
tRp184
ag6
(g8
S'\xfa\x18\x9c\x8f\xc1\xf9\x98?'
tRp185
ag6
(g8
S'\x00\x00\x00\x00\x00\x00\xc0?'
tRp186
ag6
(g8
S'\x18\x86a\x18\x86a\x88?'
tRp187
ag6
(g8
S'\x00\x00\x00\x00\x00\x00\x00\x00'
tRp188
ag6
(g8
S'\x00\x00\x00\x00\x00\x00\x00\x00'
tRp189
ag6
(g8
S'\x00\x00\x00\x00\x00\x00\x00\x00'
tRp190
ag6
(g8
S'\x00\x00\x00\x00\x00\x00\x00\x00'
tRp191
ag6
(g8
S'\xd93\x10\x95\x8e\xec\x89?'
tRp192
ag6
(g8
S'\x11\x11\x11\x11\x11\x11\xa1?'
tRp193
ag6
(g8
S'\x1a\xa4A\x1a\xa4A\x8a?'
tRp194
ag6
(g8
S'\x1a\xa4A\x1a\xa4A\x8a?'
tRp195
ag6
(g8
S'\x00\x00\x00\x00\x00\x00\x00\x00'
tRp196
ag6
(g8
S'\x1a\xa4A\x1a\xa4A\x8a?'
tRp197
ag6
(g8
S'\x00\x00\x00\x00\x00\x00\x00\x00'
tRp198
ag6
(g8
S'\x00\x00\x00\x00\x00\x00\x00\x00'
tRp199
ag6
(g8
S'\x00\x00\x00\x00\x00\x00\x00\x00'
tRp200
ag6
(g8
S'\x00\x00\x00\x00\x00\x00\x00\x00'
tRp201
ag6
(g8
S'\x00\x00\x00\x00\x00\x00\x00\x00'
tRp202
ag6
(g8
S'\x00\x00\x00\x00\x00\x00\x00\x00'
tRp203
ag6
(g8
S'\x00\x00\x00\x00\x00\x00\x00\x00'
tRp204
ag6
(g8
S'\x00\x00\x00\x00\x00\x00\x00\x00'
tRp205
ag6
(g8
S'\x00\x00\x00\x00\x00\x00\x00\x00'
tRp206
ag6
(g8
S'\x08\x1f|\xf0\xc1\x07\x9f?'
tRp207
ag6
(g8
S'B\x1a\xa4A\x1a\xa4\xe1?'
tRp208
ag6
(g8
S'\xd2 \r\xd2 \r\xc2?'
tRp209
ag6
(g8
S'\x00\x00\x00\x00\x00\x00\x00\x00'
tRp210
ag6
(g8
S'\x00\x00\x00\x00\x00\x00\x00\x00'
tRp211
ag6
(g8
S'(\xaf\xa1\xbc\x86\xf2\x8a?'
tRp212
ag6
(g8
S'\x00\x00\x00\x00\x00\x00\x00\x00'
tRp213
ag6
(g8
S'\x08\x1f|\xf0\xc1\x07\x9f?'
tRp214
ag6
(g8
S'\x00\x00\x00\x00\x00\x00\x00\x00'
tRp215
ag6
(g8
S'\xbecj`\xef\x98\x8a?'
tRp216
ag6
(g8
S'\x14\x14\x14\x14\x14\x14\x94?'
tRp217
ag6
(g8
S'\x00\x00\x00\x00\x00\x00\x00\x00'
tRp218
ag6
(g8
S'\xbecj`\xef\x98\x8a?'
tRp219
ag6
(g8
S'\x00\x00\x00\x00\x00\x00\x00\x00'
tRp220
ag6
(g8
S'\x00\x00\x00\x00\x00\x00\x00\x00'
tRp221
ag6
(g8
S'\x1a\xa4A\x1a\xa4A\x8a?'
tRp222
ag6
(g8
S'\x1a\xa4A\x1a\xa4A\x9a?'
tRp223
ag6
(g8
S'\xd2 \r\xd2 \r\xc2?'
tRp224
ag6
(g8
S'\xd9\x89\x9d\xd8\x89\x9d\xc8?'
tRp225
ag6
(g8
S'{\xc7\xd4\xc0\xde1\xe5?'
tRp226
ag6
(g8
S'333333\xe5?'
tRp227
ag6
(g8
S'5M\xd34M\xd3\xd4?'
tRp228
ag6
(g8
S'\x95?\xea\x94?\xea\xd4?'
tRp229
ag6
(g8
S'\xb3\xa6\xac)k\xca\xea?'
tRp230
ag6
(g8
S'\xb2\xa3\x7f%\xc4P\xe0?'
tRp231
ag6
(g8
S'\xc3I\xdd\x97\xc7V\xe4?'
tRp232
ag6
(g8
S'\x9c\x9b\x9b\x9b\x9b\x9b\xcb?'
tRp233
ag6
(g8
S'\x1a\xa4A\x1a\xa4A\xca?'
tRp234
ag6
(g8
S'\xef\xcbc+\x82\x86\xc3?'
tRp235
ag6
(g8
S'Cy\r\xe55\x94\xd7?'
tRp236
ag6
(g8
S'\xdf\xf2-\xdf\xf2-\xdf?'
tRp237
ag6
(g8
S'\xab\xaa\xaa\xaa\xaa\xaa\xd2?'
tRp238
ag6
(g8
S'\xb3\x1aE\x1c:i\xdf?'
tRp239
ag6
(g8
S'\xfa\x83\x8dG\xf3\x07\xdb?'
tRp240
ag6
(g8
S'\x00\x00\x00\x00\x00\x00\x00\x00'
tRp241
ag6
(g8
S'\xcf@T:\xb2g\xe0?'
tRp242
ag6
(g8
S'6\x07\x12\xad\xb09\xc0?'
tRp243
ag6
(g8
S'\x17l\xc1\x16l\xc1\xc6?'
tRp244
ag6
(g8
S'-t\xc7\xae\x86\xa5\xd7?'
tRp245
ag6
(g8
S'\x9a\x99\x99\x99\x99\x99\xd9?'
tRp246
ag6
(g8
S'\x0f\x1b\xe9\xb0\x91\x0e\xdb?'
tRp247
ag6
(g8
S'\xbbGZ\x99<\x01\xd1?'
tRp248
ag6
(g8
S'\x1a\xa4A\x1a\xa4A\xaa?'
tRp249
ag6
(g8
S'\x1a\xa4A\x1a\xa4A\x8a?'
tRp250
ag6
(g8
S'd!\x0bY\xc8B\xa6?'
tRp251
ag6
(g8
S'"5\xc1x+\xfb\xac?'
tRp252
ag6
(g8
S'\xbecj`\xef\x98\xaa?'
tRp253
ag6
(g8
S'(\xaf\xa1\xbc\x86\xf2\xaa?'
tRp254
ag6
(g8
S'\x11\x11\x11\x11\x11\x11\xa1?'
tRp255
ag6
(g8
S'\xd93\x10\x95\x8e\xec\x89?'
tRp256
ag6
(g8
S'^Cy\r\xe55\xa4?'
tRp257
ag6
(g8
S'\xd93\x10\x95\x8e\xec\x99?'
tRp258
ag6
(g8
S'\xf0\xc2A\xf4\xf8.\x9c?'
tRp259
ag6
(g8
S'\xbecj`\xef\x98\xaa?'
tRp260
ag6
(g8
S'\xd93\x10\x95\x8e\xec\xa9?'
tRp261
ag6
(g8
S'\x14;\xb1\x13;\xb1\xa3?'
tRp262
ag6
(g8
S'\x14;\xb1\x13;\xb1\xa3?'
tRp263
ag6
(g8
S'\xce\xcaO\x88\xb3\xf2\xa3?'
tRp264
ag6
(g8
S'\x14;\xb1\x13;\xb1\xa3?'
tRp265
ag6
(g8
S'\x97\x96\x96\x96\x96\x96\xb6?'
tRp266
ag6
(g8
S'\x1a\xa4A\x1a\xa4A\x9a?'
tRp267
ag6
(g8
S'\x1a\xa4A\x1a\xa4A\x9a?'
tRp268
ag6
(g8
S'\x1a\xa4A\x1a\xa4A\x9a?'
tRp269
ag6
(g8
S'\xba5?,R\x06\xce?'
tRp270
ag6
(g8
S'\xf0\x03?\xf0\x03?\xe0?'
tRp271
ag6
(g8
S'\x11\x11\x11\x11\x11\x11\xc1?'
tRp272
ag6
(g8
S'/\xa7\xe0\xe5\x14\xbc\xcc?'
tRp273
ag6
(g8
S'\xbb\x12\xb5+Q\xbb\xb2?'
tRp274
ag6
(g8
S'\x9a\x99\x99\x99\x99\x99\xa9?'
tRp275
ag6
(g8
S'J\xf1\x02\x99\x14/\xc0?'
tRp276
ag6
(g8
S'\xe3&\xcc\xefjq\xa3?'
tRp277
ag6
(g8
S'\xe0\xc0\x81\x03\x07\x0e\x9c?'
tRp278
ag6
(g8
S'\x92$I\x92$I\xa2?'
tRp279
ag6
(g8
S'\x97\x96\x96\x96\x96\x96\xb6?'
tRp280
ag6
(g8
S'\xe3&\xcc\xefjq\xa3?'
tRp281
ag6
(g8
S'\xe3&\xcc\xefjq\xa3?'
tRp282
ag6
(g8
S'\xe3&\xcc\xefjq\xa3?'
tRp283
ag6
(g8
S'\x1a\xa4A\x1a\xa4A\xaa?'
tRp284
ag6
(g8
S'{\x14\xaeG\xe1z\xa4?'
tRp285
ag6
(g8
S'\xbf\xf6\x90\xcb\x8a\x81\xa2?'
tRp286
ag6
(g8
S'\x1e\x1e\x1e\x1e\x1e\x1e\xae?'
tRp287
ag6
(g8
S'\x14;\xb1\x13;\xb1\xa3?'
tRp288
ag6
(g8
S'4u~\xed!\x97\xb5?'
tRp289
ag6
(g8
S'4u~\xed!\x97\xb5?'
tRp290
ag6
(g8
S'\xe3&\xcc\xefjq\xa3?'
tRp291
ag6
(g8
S'H\xb4\xc2\xe6@\xa2\xa5?'
tRp292
ag6
(g8
S'\x1c\xc2!\x1c\xc2!\xac?'
tRp293
ag6
(g8
S'\xc8w\xe1 z|\xa7?'
tRp294
ag6
(g8
S'w\xc4\x1dqG\xdc\xb1?'
tRp295
ag6
(g8
S'\xd93\x10\x95\x8e\xec\x99?'
tRp296
ag6
(g8
S'\x14\xa1\x08E(B\xb1?'
tRp297
ag6
(g8
S'333333\xa3?'
tRp298
ag6
(g8
S'UUUUUU\xa5?'
tRp299
ag6
(g8
S'\x18\x18\x18\x18\x18\x18\x98?'
tRp300
ag6
(g8
S'\x14;\xb1\x13;\xb1\xd3?'
tRp301
ag6
(g8
S'333333\xa3?'
tRp302
ag6
(g8
S'\x9a\x99\x99\x99\x99\x99\x99?'
tRp303
ag6
(g8
S'\xe0\xe9\xd6\xfc\xb0H\x99?'
tRp304
ag6
(g8
S')\xe2\xd0I\xfb \x89?'
tRp305
ag6
(g8
S'\x00\x00\x00\x00\x00\x00\x00\x00'
tRp306
ag6
(g8
S'\x00\x00\x00\x00\x00\x00\x00\x00'
tRp307
ag6
(g8
S'(\xaf\xa1\xbc\x86\xf2\xba?'
tRp308
ag6
(g8
S'\x00\x00\x00\x00\x00\x00\x00\x00'
tRp309
ag6
(g8
S'\x00\x00\x00\x00\x00\x00\x00\x00'
tRp310
ag6
(g8
S'\x00\x00\x00\x00\x00\x00\x00\x00'
tRp311
ag6
(g8
S'\x00\x00\x00\x00\x00\x00\x00\x00'
tRp312
ag6
(g8
S'\x00\x00\x00\x00\x00\x00\x00\x00'
tRp313
ag6
(g8
S'\x00\x00\x00\x00\x00\x00\x00\x00'
tRp314
ag6
(g8
S'\x0b\x84\x91v\xac@\xb8?'
tRp315
ag6
(g8
S'\x94>\xe9\x93>\xe9\xb3?'
tRp316
ag6
(g8
S'\x06\x16X`\x81\x05\x86?'
tRp317
ag6
(g8
S'\x17]t\xd1E\x17\xad?'
tRp318
ag6
(g8
S'\x12\x12\x12\x12\x12\x12\xa2?'
tRp319
ag6
(g8
S'\xe0\xe9\xd6\xfc\xb0H\x89?'
tRp320
ag6
(g8
S'\x1a\xa4A\x1a\xa4A\x8a?'
tRp321
ag6
(g8
S'\x14\xa1\x08E(B\xa1?'
tRp322
ag6
(g8
S'\xfa\x18\x9c\x8f\xc1\xf9\x88?'
tRp323
ag6
(g8
S'\xfa\x18\x9c\x8f\xc1\xf9\x88?'
tRp324
ag6
(g8
S']t\xd1E\x17]\xb4?'
tRp325
ag6
(g8
S'\x14;\xb1\x13;\xb1\xb3?'
tRp326
ag6
(g8
S'\xe0\xe9\xd6\xfc\xb0H\x99?'
tRp327
ag6
(g8
S'\x00\x00\x00\x00\x00\x00\x00\x00'
tRp328
ag6
(g8
S'\x00\x00\x00\x00\x00\x00\x00\x00'
tRp329
ag6
(g8
S'\xfa\x18\x9c\x8f\xc1\xf9\x98?'
tRp330
ag6
(g8
S'\xfa\x18\x9c\x8f\xc1\xf9\x98?'
tRp331
ag6
(g8
S'K\xd4\xaeD\xedJ\xc4?'
tRp332
ag6
(g8
S'B{\t\xed%\xb4\xc7?'
tRp333
ag6
(g8
S'\x1f\x83\xf318\x1f\xe3?'
tRp334
ag6
(g8
S'\x14;\xb1\x13;\xb1\xb3?'
tRp335
ag6
(g8
S'\x00\x00\x00\x00\x00\x00\xd0?'
tRp336
ag6
(g8
S'\x00\x00\x00\x00\x00\x00\x00\x00'
tRp337
ag6
(g8
S'\x92$I\x92$I\xa2?'
tRp338
ag6
(g8
S'\x1a\xa4A\x1a\xa4A\x9a?'
tRp339
ag6
(g8
S'\x06\x16X`\x81\x05\xa6?'
tRp340
ag6
(g8
S'\x00\x00\x00\x00\x00\x00\x00\x00'
tRp341
ag6
(g8
S'\x92$I\x92$I\xe2?'
tRp342
ag6
(g8
S'\x00\x00\x00\x00\x00\x00\x00\x00'
tRp343
ag6
(g8
S',Q\xbb\x12\xb5+\xd1?'
tRp344
ag6
(g8
S'qG\xdc\x11w\xc4\xad?'
tRp345
ag6
(g8
S'\xedX\x810\xd2\x8e\x85?'
tRp346
ag6
(g8
S'\x92$I\x92$I\xa2?'
tRp347
ag6
(g8
S'\x9a\x99\x99\x99\x99\x99\xb9?'
tRp348
ag6
(g8
S'B\x11\x8aP\x84"\xb4?'
tRp349
ag6
(g8
S'\x00\x00\x00\x00\x00\x00\x00\x00'
tRp350
ag6
(g8
S'\x00\x00\x00\x00\x00\x00\x00\x00'
tRp351
ag6
(g8
S'\x11\x11\x11\x11\x11\x11\xb1?'
tRp352
ag6
(g8
S'\x00\x00\x00\x00\x00\x00\x00\x00'
tRp353
ag6
(g8
S'\x00\x00\x00\x00\x00\x00\x00\x00'
tRp354
ag6
(g8
S'\x00\x00\x00\x00\x00\x00\x00\x00'
tRp355
ag6
(g8
S'\x1e\x1e\x1e\x1e\x1e\x1e\xae?'
tRp356
ag6
(g8
S'\xfa\x18\x9c\x8f\xc1\xf9\x98?'
tRp357
ag6
(g8
S'\x00\x00\x00\x00\x00\x00\x00\x00'
tRp358
ag6
(g8
S'\x18\x18\x18\x18\x18\x18\x98?'
tRp359
ag6
(g8
S'\x15\xf8\xe2\xea\x07\x1d\xa5?'
tRp360
asS'missed'
p361
(lp362
I0
aI0
aI1
aI1
aI0
aI0
aI1
aI1
aI0
aI4
aI1
aI8
aI1
aI1
aI0
aI0
aI3
aI0
aI0
aI0
aI0
aI0
aI4
aI1
aI0
aI0
aI0
aI0
aI0
aI1
aI5
aI10
aI2
aI29
aI25
aI20
aI0
aI4
aI1
aI26
aI0
aI1
aI0
aI0
aI3
aI0
aI0
aI0
aI0
aI0
aI22
aI2
aI0
aI0
aI0
aI0
aI0
aI0
aI0
aI0
aI1
aI0
aI0
aI0
aI0
aI0
aI2
aI0
aI0
aI0
aI0
aI0
aI0
aI0
aI0
aI0
aI0
aI0
aI0
aI0
aI0
aI0
aI2
aI22
aI22
aI22
aI0
aI0
aI1
aI2
aI0
aI0
aI0
aI0
aI0
aI0
aI0
aI23
aI4
aI13
aI30
aI28
aI25
aI3
aI0
aI0
aI0
aI0
aI0
aI0
aI0
aI0
aI0
aI0
aI1
aI0
aI0
aI0
aI0
aI0
aI0
aI0
aI21
aI19
aI0
aI0
aI0
aI0
aI0
aI19
aI0
aI0
aI0
aI0
aI0
aI0
aI1
aI0
aI0
aI0
aI0
aI0
aI0
aI1
aI1
aI2
aI0
aI0
aI14
aI6
aI1
aI1
aI0
aI1
aI1
aI3
aI2
aI1
aI1
aI1
aI1
aI5
aI15
aI19
aI13
aI8
aI10
aI11
aI14
aI21
aI0
aI2
aI0
aI0
aI1
aI2
aI1
aI0
aI14
aI1
aI2
aI1
aI1
aI2
aI0
aI1
aI1
aI1
aI2
aI1
aI0
aI0
aI1
aI2
aI1
aI1
aI2
aI0
aI1
aI14
aI22
aI2
aI1
aI1
aI1
aI0
aI3
aI0
aI0
aI0
aI0
aI0
aI1
aI0
aI0
aI4
aI0
aI21
aI18
aI27
aI72
aI8
aI120
aI35
aI5
aI29
aI20
aI12
aI31
aI0
aI57
aI56
aI1
aI11
aI7
aI3
aI82
aI133
aI125
aI34
aI1
aI1
aI0
aI0
aI0
aI1
aI0
aI0
aI0
aI0
aI6
aI0
aI6
aI0
aI0
aI0
aI0
aI4
aI0
aI0
aI0
aI1
aI23
aI1
aI11
aI0
aI0
aI0
aI0
aI0
aI0
aI4
aI0
aI0
aI0
aI0
aI0
aI0
aI5
aI0
aI0
aI0
aI0
aI0
aI0
aI0
aI0
aI0
aI3
aI0
aI0
aI0
aI7
aI0
aI1
aI0
aI0
aI0
aI0
aI1
aI0
aI0
aI0
aI0
aI0
aI0
aI0
aI1
aI3
aI0
aI1
aI0
aI0
aI0
aI0
aI1
aI1
aI0
aI0
aI0
aI1
aI0
aI0
aI3
aI0
aI33
aI0
aI0
aI1
aI1
aI0
aI1
aI0
aI0
aI0
aI12
aI0
aI0
aI1
aI0
aI1
aI0
aI2
aI1
aI1
aI0
aI1
aI1
aI1
aI0
aI0
aI0
asS'comparison'
p363
(dp364
S'heur_random'
p365
(dp366
g361
(lp367
I0
aI0
aI1
aI1
aI0
aI0
aI1
aI1
aI0
aI1
aI3
aI1
aI0
aI1
aI0
aI0
aI0
aI1
aI0
aI0
aI0
aI0
aI2
aI1
aI0
aI0
aI0
aI0
aI0
aI0
aI3
aI6
aI2
aI25
aI26
aI23
aI0
aI3
aI1
aI25
aI2
aI1
aI0
aI0
aI5
aI0
aI0
aI0
aI0
aI1
aI15
aI16
aI0
aI0
aI1
aI0
aI0
aI0
aI0
aI0
aI1
aI1
aI1
aI0
aI0
aI0
aI2
aI0
aI0
aI0
aI0
aI0
aI0
aI0
aI0
aI0
aI0
aI0
aI0
aI1
aI0
aI0
aI39
aI33
aI33
aI35
aI0
aI0
aI2
aI3
aI0
aI0
aI0
aI1
aI0
aI0
aI0
aI33
aI7
aI16
aI32
aI32
aI33
aI2
aI0
aI0
aI0
aI0
aI0
aI0
aI1
aI0
aI0
aI0
aI0
aI0
aI0
aI0
aI0
aI0
aI0
aI0
aI36
aI37
aI0
aI0
aI0
aI0
aI0
aI28
aI0
aI0
aI0
aI0
aI0
aI0
aI1
aI2
aI0
aI1
aI1
aI1
aI1
aI0
aI1
aI0
aI0
aI0
aI18
aI18
aI21
aI16
aI0
aI1
aI0
aI4
aI0
aI0
aI0
aI1
aI0
aI4
aI20
aI29
aI23
aI26
aI25
aI24
aI26
aI23
aI0
aI8
aI0
aI1
aI1
aI2
aI2
aI2
aI6
aI0
aI1
aI1
aI0
aI2
aI0
aI1
aI1
aI0
aI2
aI0
aI0
aI0
aI1
aI1
aI0
aI1
aI2
aI0
aI1
aI24
aI18
aI2
aI1
aI1
aI1
aI0
aI0
aI0
aI1
aI0
aI1
aI0
aI1
aI0
aI1
aI5
aI8
aI35
aI34
aI36
aI67
aI30
aI144
aI53
aI7
aI23
aI10
aI14
aI30
aI11
aI60
aI99
aI1
aI44
aI7
aI6
aI88
aI144
aI131
aI47
aI3
aI0
aI1
aI3
aI3
aI3
aI2
aI0
aI2
aI0
aI3
aI0
aI5
aI1
aI1
aI1
aI1
aI2
aI2
aI1
aI2
aI13
aI37
aI2
aI10
aI3
aI1
aI5
aI2
aI1
aI1
aI2
aI2
aI1
aI1
aI1
aI2
aI3
aI4
aI0
aI3
aI5
aI1
aI1
aI2
aI3
aI2
aI0
aI6
aI2
aI1
aI1
aI7
aI1
aI2
aI1
aI1
aI0
aI0
aI1
aI0
aI0
aI0
aI0
aI0
aI0
aI3
aI4
aI1
aI3
aI3
aI1
aI1
aI1
aI0
aI0
aI5
aI5
aI0
aI0
aI1
aI0
aI1
aI7
aI9
aI37
aI1
aI5
aI1
aI5
aI2
aI2
aI0
aI0
aI0
aI15
aI4
aI1
aI2
aI4
aI5
aI0
aI1
aI5
aI0
aI0
aI1
aI2
aI1
aI0
aI2
aI3
asS'recall'
p368
(lp369
I1
aI1
aF0
aF0
aI1
aI1
aF0
aF0
aI1
aF0.75
aF0.25
aF0.88888888888888884
aF1
aF0
aI1
aI1
aF1
aF0
aI1
aI1
aI1
aI1
aF0.5
aF0
aI1
aI1
aI1
aI1
aI1
aF1
aF0.40000000000000002
aF0.45454545454545453
aF0.59999999999999998
aF0.50980392156862742
aF0.50943396226415094
aF0.53061224489795922
aI1
aF0.69999999999999996
aF0
aF0.52830188679245282
aF0
aF0
aI1
aI1
aF0.375
aI1
aI1
aI1
aI1
aF0
aF0.5161290322580645
aF0.46666666666666667
aI1
aI1
aF0
aI1
aI1
aI1
aI1
aI1
aF0
aF0
aF0
aF1
aF1
aF1
aF0
aF1
aI1
aI1
aI1
aI1
aI1
aI1
aI1
aI1
aI1
aF1
aI1
aF0
aI1
aI1
aF0.47297297297297297
aF0.55405405405405406
aF0.55405405405405406
aF0.52702702702702697
aI1
aI1
aF0
aF0.625
aI1
aI1
aI1
aF0
aI1
aI1
aI1
aF0.54166666666666663
aF0.53333333333333333
aF0.52941176470588236
aF0.55555555555555558
aF0.55555555555555558
aF0.54166666666666663
aF0.5
aI1
aI1
aI1
aF1
aF1
aF1
aF0
aI1
aI1
aF1
aF1
aI1
aI1
aI1
aI1
aI1
aI1
aI1
aF0.5
aF0.4861111111111111
aI1
aI1
aI1
aI1
aI1
aF0.50877192982456143
aI1
aI1
aI1
aI1
aI1
aI1
aF0
aF0
aF1
aF0
aF0.5
aF0
aF0
aF1
aF0
aF1
aI1
aI1
aF0.55000000000000004
aF0.45454545454545453
aF0.36363636363636365
aF0.51515151515151514
aI1
aF0
aF1
aF0.42857142857142855
aF1
aF1
aF1
aF0
aF1
aF0.33333333333333331
aF0.53488372093023251
aF0.39583333333333331
aF0.52083333333333337
aF0.45833333333333331
aF0.51923076923076927
aF0.52941176470588236
aF0.46938775510204084
aF0.48888888888888887
aF1
aF0.52941176470588236
aF1
aF0
aF0.5
aF0.33333333333333331
aF0.33333333333333331
aF0.33333333333333331
aF0.59999999999999998
aF1
aF0.5
aF0
aF1
aF0.33333333333333331
aF1
aF0.5
aF0.5
aF1
aF0.33333333333333331
aF1
aI1
aI1
aF0
aF0.5
aF1
aF0
aF0
aI1
aF0.5
aF0.57894736842105265
aF0.45454545454545453
aF0
aF0
aF0.5
aF0
aF1
aF1
aF1
aF0
aI1
aF0
aI1
aF0
aF1
aF0.5
aF0.66666666666666663
aF0.46666666666666667
aF0.51388888888888884
aF0.52112676056338025
aF0.47058823529411764
aF0.45081967213114754
aF0.625
aF0.52159468438538203
aF0.51818181818181819
aF0.5625
aF0.48888888888888887
aF0.65517241379310343
aF0.46153846153846156
aF0.56521739130434778
aF0.47619047619047616
aF0.56204379562043794
aF0.484375
aF0
aF0.52173913043478259
aF0.5625
aF0.45454545454545453
aF0.4942528735632184
aF0.49825783972125437
aF0.53380782918149461
aF0.47191011235955055
aF0.40000000000000002
aF1
aF0
aF0.5
aF0.25
aF0.40000000000000002
aF0.33333333333333331
aF1
aF0.33333333333333331
aF1
aF0.66666666666666663
aF1
aF0.5
aF0.66666666666666663
aF0.66666666666666663
aF0.66666666666666663
aF0.66666666666666663
aF0.7142857142857143
aF0
aF0.5
aF0
aF0.34999999999999998
aF0.5842696629213483
aF0.33333333333333331
aF0.54545454545454541
aF0.5
aF0.75
aF0.54545454545454541
aF0.33333333333333331
aF0.5
aF0.66666666666666663
aF0.7142857142857143
aF0.33333333333333331
aF0.66666666666666663
aF0.66666666666666663
aF0.75
aF0.33333333333333331
aF0
aF0.42857142857142855
aF1
aF0.5714285714285714
aF0.2857142857142857
aF0.66666666666666663
aF0.66666666666666663
aF0.59999999999999998
aF0.40000000000000002
aF0.66666666666666663
aF1
aF0.33333333333333331
aF0.33333333333333331
aF0.66666666666666663
aF0.5
aF0.63157894736842102
aF0.66666666666666663
aF0.33333333333333331
aF0.5
aF0.5
aI1
aI1
aF0.80000000000000004
aI1
aI1
aI1
aI1
aI1
aI1
aF0.66666666666666663
aF0.5
aF0.75
aF0.40000000000000002
aF0.25
aF0
aF0
aF0.66666666666666663
aF1
aF1
aF0.375
aF0.16666666666666666
aF1
aI1
aF0
aF1
aF0.5
aF0.5625
aF0.40000000000000002
aF0.54878048780487809
aF0.5
aF0.6428571428571429
aF0
aF0.2857142857142857
aF0
aF0.59999999999999998
aI1
aF1
aI1
aF0.55882352941176472
aF0.20000000000000001
aF0
aF0.5
aF0.55555555555555558
aF0.375
aI1
aF0.5
aF0.2857142857142857
aF1
aI1
aF0
aF0.66666666666666663
aF0.66666666666666663
aI1
aF0
aF0.25
asS'durations'
p370
(lp371
F0.00033497810363769531
aF3.0994415283203125e-05
aF0.00074911117553710938
aF0.0015611648559570312
aF0.00091886520385742188
aF0.000759124755859375
aF0.00077295303344726562
aF0.00089907646179199219
aF0.0014438629150390625
aF0.00087594985961914062
aF0.0015718936920166016
aF0.0023891925811767578
aF0.00073599815368652344
aF0.0012059211730957031
aF0.00092911720275878906
aF0.0006961822509765625
aF0.00091886520385742188
aF0.0009250640869140625
aF0.00075697898864746094
aF0.0010311603546142578
aF0.00090885162353515625
aF0.00086808204650878906
aF0.00096893310546875
aF0.0011608600616455078
aF0.0010900497436523438
aF0.0010340213775634766
aF0.0010390281677246094
aF0.0010178089141845703
aF0.0010209083557128906
aF0.0011961460113525391
aF0.0013837814331054688
aF0.0042891502380371094
aF0.0032660961151123047
aF0.0015900135040283203
aF0.0018379688262939453
aF0.0014791488647460938
aF2.5987625122070312e-05
aF0.0034689903259277344
aF0.0013580322265625
aF0.0032701492309570312
aF0.0055999755859375
aF0.00086498260498046875
aF2.5987625122070312e-05
aF0.0021281242370605469
aF0.0021657943725585938
aF0.0024359226226806641
aF0.0020449161529541016
aF0.0012738704681396484
aF0.0020968914031982422
aF0.0029468536376953125
aF0.0020720958709716797
aF0.0019390583038330078
aF0.0011279582977294922
aF0.0020020008087158203
aF0.0023150444030761719
aF0.0020899772644042969
aF0.0020191669464111328
aF0.0019998550415039062
aF0.0020239353179931641
aF0.0032429695129394531
aF0.0019819736480712891
aF0.0019519329071044922
aF0.0020589828491210938
aF0.0019359588623046875
aF0.00096797943115234375
aF0.0013070106506347656
aF0.0020151138305664062
aF0.0020439624786376953
aF0.0020611286163330078
aF0.0021350383758544922
aF0.0020189285278320312
aF0.0020489692687988281
aF0.0020508766174316406
aF0.0020418167114257812
aF0.0021209716796875
aF0.0020139217376708984
aF0.0020349025726318359
aF0.00096917152404785156
aF8.7022781372070312e-05
aF0.0021131038665771484
aF0.0020430088043212891
aF0.0020818710327148438
aF0.0039608478546142578
aF0.00031208992004394531
aF0.00041818618774414062
aF0.00040507316589355469
aF0.0020020008087158203
aF0.0020680427551269531
aF0.0020840167999267578
aF0.0022199153900146484
aF0.0020399093627929688
aF0.0020329952239990234
aF0.0020768642425537109
aF0.0020010471343994141
aF0.0020802021026611328
aF0.0021059513092041016
aF0.0023660659790039062
aF0.0020399093627929688
aF0.00050592422485351562
aF0.0017359256744384766
aF0.0024058818817138672
aF0.0021300315856933594
aF0.0022029876708984375
aF0.0027360916137695312
aF0.0021879673004150391
aF0.0020759105682373047
aF0.00228118896484375
aF0.0029718875885009766
aF0.0020880699157714844
aF0.0027499198913574219
aF0.0025980472564697266
aF0.0017528533935546875
aF2.7894973754882812e-05
aF0.0022599697113037109
aF0.0022420883178710938
aF0.0023331642150878906
aF0.0021100044250488281
aF0.0020909309387207031
aF0.0020740032196044922
aF0.0021760463714599609
aF0.0021049976348876953
aF0.0022149085998535156
aF0.0021150112152099609
aF0.0021319389343261719
aF0.0023081302642822266
aF0.0022900104522705078
aF0.0021748542785644531
aF0.0019681453704833984
aF0.002079010009765625
aF0.0023670196533203125
aF0.000782012939453125
aF0.0013730525970458984
aF2.5033950805664062e-05
aF0.0021710395812988281
aF0.0023109912872314453
aF0.0020740032196044922
aF0.0020940303802490234
aF0.0021278858184814453
aF0.0020539760589599609
aF0.0023128986358642578
aF0.0021049976348876953
aF0.0020499229431152344
aF0.0022008419036865234
aF0.0021319389343261719
aF0.0021309852600097656
aF0.0021519660949707031
aF0.00013899803161621094
aF2.5987625122070312e-05
aF0.0012328624725341797
aF0.0022039413452148438
aF0.0021109580993652344
aF0.0020549297332763672
aF3.0994415283203125e-05
aF0.0021600723266601562
aF0.0023310184478759766
aF0.00091910362243652344
aF0.0020999908447265625
aF0.0021378993988037109
aF0.0020837783813476562
aF0.0022649765014648438
aF0.0020680427551269531
aF0.0021119117736816406
aF0.0016930103302001953
aF0.0021150112152099609
aF0.0024080276489257812
aF0.0022439956665039062
aF0.0021898746490478516
aF0.0021009445190429688
aF0.0020420551300048828
aF0.0020611286163330078
aF0.00075697898864746094
aF0.0026669502258300781
aF0.0022141933441162109
aF0.0022370815277099609
aF0.0022590160369873047
aF0.0020878314971923828
aF0.0022790431976318359
aF0.00063800811767578125
aF0.0022900104522705078
aF0.0022699832916259766
aF0.0021359920501708984
aF0.0022280216217041016
aF0.0021560192108154297
aF0.0021879673004150391
aF0.00096607208251953125
aF0.0021378993988037109
aF0.0021569728851318359
aF0.0021109580993652344
aF0.0021190643310546875
aF0.0017549991607666016
aF2.8133392333984375e-05
aF0.00084686279296875
aF0.002079010009765625
aF0.0021369457244873047
aF0.0023179054260253906
aF0.0020959377288818359
aF0.0020709037780761719
aF2.6941299438476562e-05
aF0.00096583366394042969
aF0.002223968505859375
aF0.0022709369659423828
aF0.0030560493469238281
aF0.0022389888763427734
aF0.0020689964294433594
aF0.0021898746490478516
aF0.000946044921875
aF0.0030260086059570312
aF0.0021460056304931641
aF0.0014848709106445312
aF4.6968460083007812e-05
aF0.0025930404663085938
aF3.0040740966796875e-05
aF0.00091314315795898438
aF0.0021660327911376953
aF0.0024919509887695312
aF0.0021009445190429688
aF0.0022950172424316406
aF0.0021090507507324219
aF0.0022459030151367188
aF0.0035960674285888672
aF0.0041248798370361328
aF0.0023210048675537109
aF0.0097439289093017578
aF0.0032601356506347656
aF0.0015230178833007812
aF0.0021381378173828125
aF0.0016849040985107422
aF0.0011000633239746094
aF0.0021970272064208984
aF0.0020439624786376953
aF0.0050129890441894531
aF0.0096111297607421875
aF3.6001205444335938e-05
aF0.0044610500335693359
aF0.002040863037109375
aF0.0012340545654296875
aF0.0067548751831054688
aF0.010657072067260742
aF0.010348081588745117
aF0.0059969425201416016
aF0.0021328926086425781
aF0.0031969547271728516
aF0.00073909759521484375
aF0.0028548240661621094
aF0.0022649765014648438
aF0.0021209716796875
aF0.0025830268859863281
aF0.0022671222686767578
aF0.0020840167999267578
aF0.0022509098052978516
aF0.0033540725708007812
aF0.0022439956665039062
aF0.0021541118621826172
aF0.0021450519561767578
aF0.0024180412292480469
aF0.0021178722381591797
aF0.0025200843811035156
aF0.000946044921875
aF0.0022089481353759766
aF0.0023119449615478516
aF0.0021710395812988281
aF0.0022079944610595703
aF0.0036101341247558594
aF0.00051617622375488281
aF0.0015230178833007812
aF0.0028250217437744141
aF0.0022311210632324219
aF0.0024771690368652344
aF0.0021619796752929688
aF0.0020918846130371094
aF0.0023148059844970703
aF0.0009479522705078125
aF0.0021929740905761719
aF0.0022351741790771484
aF0.0022561550140380859
aF0.0021209716796875
aF0.0020329952239990234
aF0.0022590160369873047
aF0.00094389915466308594
aF0.0024077892303466797
aF0.002246856689453125
aF0.0023128986358642578
aF0.00222015380859375
aF0.0019519329071044922
aF0.0026690959930419922
aF0.0030629634857177734
aF0.0023281574249267578
aF0.0021200180053710938
aF0.0025219917297363281
aF0.0022540092468261719
aF0.0019769668579101562
aF0.0024161338806152344
aF0.0010638236999511719
aF0.0022499561309814453
aF0.0022890567779541016
aF0.0021719932556152344
aF0.0045361518859863281
aF0.00203704833984375
aF0.0024120807647705078
aF0.0011770725250244141
aF0.001255035400390625
aF0.0026218891143798828
aF0.0023598670959472656
aF0.0022420883178710938
aF0.0024011135101318359
aF0.0023119449615478516
aF0.0026309490203857422
aF0.0025990009307861328
aF0.0026409626007080078
aF0.0027909278869628906
aF0.0025160312652587891
aF0.0022981166839599609
aF0.0021741390228271484
aF0.0024621486663818359
aF0.0023658275604248047
aF0.0027329921722412109
aF0.0024480819702148438
aF0.0021719932556152344
aF0.0021491050720214844
aF0.0021109580993652344
aF3.0994415283203125e-05
aF0.0022408962249755859
aF0.002262115478515625
aF0.0023348331451416016
aF0.0023601055145263672
aF0.00232696533203125
aF0.00079011917114257812
aF0.0014989376068115234
aF2.7894973754882812e-05
aF0.0047440528869628906
aF0.0022709369659423828
aF0.0025289058685302734
aF0.0022759437561035156
aF0.00021696090698242188
aF5.1021575927734375e-05
aF0.0022709369659423828
aF0.0024738311767578125
aF0.0027019977569580078
aF0.0023338794708251953
aF0.0030889511108398438
aF0.0025219917297363281
aF0.0021269321441650391
aF0.0023109912872314453
aF0.0024330615997314453
aF0.0023210048675537109
aF0.00011301040649414062
aF2.8133392333984375e-05
aF0.0023488998413085938
aF0.0022637844085693359
aF9.6082687377929688e-05
aF0.0024302005767822266
aF0.0030639171600341797
asg2
(lp372
I1
aI1
aI123
aI123
aI1
aI1
aI123
aI123
aI1
aI123
aI123
aI123
aI123
aI123
aI1
aI1
aI123
aI123
aI1
aI1
aI1
aI1
aI123
aI123
aI1
aI1
aI1
aI1
aI1
aI123
aI123
aI123
aI123
aI123
aI123
aI123
aI1
aI123
aI123
aI123
aI123
aI123
aI1
aI1
aI123
aI1
aI1
aI1
aI1
aI123
aI123
aI123
aI1
aI1
aI123
aI1
aI1
aI1
aI1
aI1
aI123
aI123
aI123
aI123
aI123
aI123
aI123
aI123
aI1
aI1
aI1
aI1
aI1
aI1
aI1
aI1
aI1
aI123
aI1
aI123
aI1
aI1
aI123
aI123
aI123
aI123
aI1
aI1
aI123
aI123
aI1
aI1
aI1
aI123
aI1
aI1
aI1
aI123
aI123
aI123
aI123
aI123
aI123
aI123
aI1
aI1
aI1
aI123
aI123
aI123
aI123
aI1
aI1
aI123
aI123
aI1
aI1
aI1
aI1
aI1
aI1
aI1
aI123
aI123
aI1
aI1
aI1
aI1
aI1
aI123
aI1
aI1
aI1
aI1
aI1
aI1
aI123
aI123
aI123
aI123
aI123
aI123
aI123
aI123
aI123
aI123
aI1
aI1
aI123
aI123
aI123
aI123
aI1
aI123
aI123
aI123
aI123
aI123
aI123
aI123
aI123
aI123
aI123
aI123
aI123
aI123
aI123
aI123
aI123
aI123
aI123
aI123
aI123
aI123
aI123
aI123
aI123
aI123
aI123
aI123
aI123
aI123
aI123
aI123
aI123
aI123
aI123
aI123
aI123
aI123
aI1
aI1
aI123
aI123
aI123
aI123
aI123
aI1
aI123
aI123
aI123
aI123
aI123
aI123
aI123
aI123
aI123
aI123
aI123
aI1
aI123
aI1
aI123
aI123
aI123
aI123
aI123
aI123
aI123
aI123
aI123
aI123
aI123
aI123
aI123
aI123
aI123
aI123
aI123
aI123
aI123
aI123
aI123
aI123
aI123
aI123
aI123
aI123
aI123
aI123
aI123
aI123
aI123
aI123
aI123
aI123
aI123
aI123
aI123
aI123
aI123
aI123
aI123
aI123
aI123
aI123
aI123
aI123
aI123
aI123
aI123
aI123
aI123
aI123
aI123
aI123
aI123
aI123
aI123
aI123
aI123
aI123
aI123
aI123
aI123
aI123
aI123
aI123
aI123
aI123
aI123
aI123
aI123
aI123
aI123
aI123
aI123
aI123
aI123
aI123
aI123
aI123
aI123
aI123
aI123
aI123
aI123
aI1
aI1
aI123
aI1
aI1
aI1
aI1
aI1
aI1
aI123
aI123
aI123
aI123
aI123
aI123
aI123
aI123
aI123
aI123
aI123
aI123
aI123
aI1
aI123
aI123
aI123
aI123
aI123
aI123
aI123
aI123
aI123
aI123
aI123
aI123
aI1
aI123
aI1
aI123
aI123
aI123
aI123
aI123
aI123
aI1
aI123
aI123
aI123
aI1
aI123
aI123
aI123
aI1
aI123
aI123
asS'detected'
p373
(lp374
I0
aI0
aI0
aI0
aI0
aI0
aI0
aI0
aI0
aI3
aI1
aI8
aI1
aI0
aI0
aI0
aI3
aI0
aI0
aI0
aI0
aI0
aI2
aI0
aI0
aI0
aI0
aI0
aI0
aI1
aI2
aI5
aI3
aI26
aI27
aI26
aI0
aI7
aI0
aI28
aI0
aI0
aI0
aI0
aI3
aI0
aI0
aI0
aI0
aI0
aI16
aI14
aI0
aI0
aI0
aI0
aI0
aI0
aI0
aI0
aI0
aI0
aI0
aI1
aI3
aI1
aI0
aI1
aI0
aI0
aI0
aI0
aI0
aI0
aI0
aI0
aI0
aI1
aI0
aI0
aI0
aI0
aI35
aI41
aI41
aI39
aI0
aI0
aI0
aI5
aI0
aI0
aI0
aI0
aI0
aI0
aI0
aI39
aI8
aI18
aI40
aI40
aI39
aI2
aI0
aI0
aI0
aI1
aI1
aI1
aI0
aI0
aI0
aI2
aI1
aI0
aI0
aI0
aI0
aI0
aI0
aI0
aI36
aI35
aI0
aI0
aI0
aI0
aI0
aI29
aI0
aI0
aI0
aI0
aI0
aI0
aI0
aI0
aI1
aI0
aI1
aI0
aI0
aI2
aI0
aI2
aI0
aI0
aI22
aI15
aI12
aI17
aI0
aI0
aI1
aI3
aI2
aI1
aI1
aI0
aI1
aI2
aI23
aI19
aI25
aI22
aI27
aI27
aI23
aI22
aI2
aI9
aI2
aI0
aI1
aI1
aI1
aI1
aI9
aI1
aI1
aI0
aI1
aI1
aI1
aI1
aI1
aI1
aI1
aI1
aI0
aI0
aI0
aI1
aI1
aI0
aI0
aI0
aI1
aI33
aI15
aI0
aI0
aI1
aI0
aI1
aI3
aI1
aI0
aI0
aI0
aI0
aI0
aI1
aI1
aI10
aI7
aI37
aI37
aI32
aI55
aI50
aI157
aI57
aI9
aI22
aI19
aI12
aI39
aI10
aI77
aI93
aI0
aI48
aI9
aI5
aI86
aI143
aI150
aI42
aI2
aI2
aI0
aI3
aI1
aI2
aI1
aI1
aI1
aI2
aI6
aI4
aI5
aI2
aI2
aI2
aI2
aI5
aI0
aI1
aI0
aI7
aI52
aI1
aI12
aI3
aI3
aI6
aI1
aI1
aI2
aI5
aI1
aI2
aI2
aI3
aI1
aI0
aI3
aI3
aI4
aI2
aI2
aI2
aI3
aI2
aI4
aI2
aI3
aI1
aI2
aI1
aI12
aI2
aI1
aI1
aI1
aI0
aI0
aI4
aI0
aI0
aI0
aI0
aI0
aI0
aI6
aI4
aI3
aI2
aI1
aI0
aI0
aI2
aI1
aI2
aI3
aI1
aI2
aI0
aI0
aI2
aI1
aI9
aI6
aI45
aI1
aI9
aI0
aI2
aI0
aI3
aI0
aI4
aI0
aI19
aI1
aI0
aI2
aI5
aI3
aI0
aI1
aI2
aI1
aI0
aI0
aI4
aI2
aI0
aI0
aI1
asS'ttf'
p375
(lp376
I0
aI0
aI0
aI0
aI0
aI0
aI0
aI0
aI0
aI2
aI9
aI5
aI11
aI0
aI0
aI0
aI8
aI0
aI0
aI0
aI0
aI0
aI5
aI0
aI0
aI0
aI0
aI0
aI0
aI12
aI10
aI32
aI16
aI1
aI1
aI1
aI0
aI12
aI0
aI1
aI0
aI0
aI0
aI0
aI15
aI0
aI0
aI0
aI0
aI0
aI4
aI1
aI0
aI0
aI0
aI0
aI0
aI0
aI0
aI0
aI0
aI0
aI0
aI36
aI6
aI17
aI0
aI33
aI0
aI0
aI0
aI0
aI0
aI0
aI0
aI0
aI0
aI8
aI0
aI0
aI0
aI0
aI1
aI1
aI1
aI1
aI0
aI0
aI0
aI5
aI0
aI0
aI0
aI0
aI0
aI0
aI0
aI1
aI2
aI1
aI1
aI1
aI1
aI4
aI0
aI0
aI0
aI39
aI19
aI8
aI0
aI0
aI0
aI31
aI23
aI0
aI0
aI0
aI0
aI0
aI0
aI0
aI1
aI1
aI0
aI0
aI0
aI0
aI0
aI2
aI0
aI0
aI0
aI0
aI0
aI0
aI0
aI0
aI23
aI0
aI30
aI0
aI0
aI32
aI0
aI29
aI0
aI0
aI1
aI2
aI2
aI1
aI0
aI0
aI13
aI5
aI13
aI38
aI22
aI0
aI9
aI16
aI1
aI1
aI1
aI1
aI2
aI1
aI1
aI1
aI2
aI9
aI23
aI0
aI10
aI3
aI40
aI14
aI2
aI13
aI21
aI0
aI34
aI5
aI8
aI33
aI28
aI24
aI23
aI19
aI0
aI0
aI0
aI40
aI19
aI0
aI0
aI0
aI1
aI1
aI1
aI0
aI0
aI15
aI0
aI13
aI19
aI17
aI0
aI0
aI0
aI0
aI0
aI22
aI29
aI2
aI5
aI1
aI1
aI2
aI1
aI1
aI1
aI1
aI1
aI1
aI1
aI1
aI1
aI2
aI1
aI3
aI0
aI4
aI2
aI2
aI2
aI1
aI2
aI1
aI5
aI7
aI0
aI4
aI11
aI9
aI7
aI43
aI16
aI8
aI4
aI8
aI2
aI1
aI21
aI2
aI5
aI1
aI0
aI12
aI0
aI5
aI1
aI2
aI1
aI22
aI11
aI1
aI14
aI21
aI7
aI5
aI24
aI8
aI18
aI30
aI30
aI0
aI8
aI20
aI2
aI19
aI10
aI3
aI10
aI47
aI15
aI13
aI1
aI4
aI32
aI25
aI1
aI2
aI13
aI12
aI67
aI0
aI0
aI1
aI0
aI0
aI0
aI0
aI0
aI0
aI13
aI16
aI13
aI12
aI3
aI0
aI0
aI2
aI32
aI15
aI21
aI36
aI3
aI0
aI0
aI24
aI3
aI1
aI8
aI1
aI8
aI2
aI0
aI55
aI0
aI2
aI0
aI1
aI0
aI4
aI11
aI0
aI8
aI7
aI20
aI0
aI31
aI28
aI2
aI0
aI0
aI13
aI13
aI0
aI0
aI42
asS'napfd'
p377
(lp378
I1
aI1
aF0
aF0
aI1
aI1
aF0
aF0
aI1
aF0.60416666666666663
aF0.21398305084745761
aF0.69135802469135799
aF0.62500000000000011
aF0
aI1
aI1
aF0.46969696969696972
aF0
aI1
aI1
aI1
aI1
aF0.40909090909090906
aF0
aI1
aI1
aI1
aI1
aI1
aF0.71249999999999991
aF0.30196078431372553
aF0.33551136363636364
aF0.45575221238938052
aF0.37973856209150325
aF0.37385879488740115
aF0.37339380196523059
aI1
aF0.46411290322580639
aF0
aF0.38325471698113212
aF0
aF0
aI1
aI1
aF0.26604729729729726
aI1
aI1
aI1
aI1
aF0
aF0.38709677419354838
aF0.36811594202898551
aI1
aI1
aF0
aI1
aI1
aI1
aI1
aI1
aF0
aF0
aF0
aF0.5
aF0.734375
aF0.64893617021276595
aF0
aF0.56666666666666676
aI1
aI1
aI1
aI1
aI1
aI1
aI1
aI1
aI1
aF0.7857142857142857
aI1
aF0
aI1
aI1
aF0.34478098788443617
aF0.40056610664718773
aF0.40056610664718773
aF0.38814828341855362
aI1
aI1
aF0
aF0.51069078947368418
aI1
aI1
aI1
aF0
aI1
aI1
aI1
aF0.39583333333333331
aF0.38596491228070173
aF0.37564499484004127
aF0.40131578947368424
aF0.40241228070175439
aF0.40268640350877188
aF0.46323529411764708
aI1
aI1
aI1
aF0.48666666666666664
aF0.75657894736842102
aF0.90131578947368418
aF0
aI1
aI1
aF0.54487179487179482
aF0.70394736842105265
aI1
aI1
aI1
aI1
aI1
aI1
aI1
aF0.36860380116959063
aF0.36558845029239762
aI1
aI1
aI1
aI1
aI1
aF0.36614684860298902
aI1
aI1
aI1
aI1
aI1
aI1
aF0
aF0
aF0.6875
aF0
aF0.30844155844155841
aF0
aF0
aF0.57894736842105265
aF0
aF0.61184210526315785
aI1
aI1
aF0.40284090909090908
aF0.35267145135566186
aF0.25518341307814996
aF0.39777777777777779
aI1
aF0
aF0.84375
aF0.31105990783410137
aF0.71052631578947367
aF0.51923076923076916
aF0.71333333333333337
aF0
aF0.88666666666666671
aF0.21212121212121213
aF0.38984088127294975
aF0.31402777777777779
aF0.36347222222222225
aF0.36184210526315785
aF0.40795028142589124
aF0.38133435192258724
aF0.3661059018201876
aF0.36779388083735909
aF0.8392857142857143
aF0.40778186274509803
aF0.66666666666666663
aF0
aF0.4391025641025641
aF0.322072072072072
aF0.17276422764227642
aF0.14583333333333331
aF0.45039682539682535
aF0.83974358974358976
aF0.36688311688311687
aF0
aF0.56493506493506496
aF0.31434599156118137
aF0.75000000000000011
aF0.29166666666666663
aF0.32371794871794868
aF0.69480519480519476
aF0.23717948717948717
aF0.67543859649122817
aI1
aI1
aF0
aF0.24679487179487181
aF0.76582278481012667
aF0
aF0
aI1
aF0.49242424242424243
aF0.40654520917678816
aF0.35839160839160839
aF0
aF0
aF0.40460526315789469
aF0
aF0.62121212121212122
aF0.63050314465408808
aF0.7857142857142857
aF0
aI1
aF0
aI1
aF0
aF0.72435897435897434
aF0.31730769230769229
aF0.50085470085470085
aF0.33888888888888891
aF0.37292568542568544
aF0.3861795774647887
aF0.35434173669467783
aF0.34846780242151504
aF0.43052325581395351
aF0.392648916756352
aF0.37939137134052392
aF0.45159313725490191
aF0.38660968660968664
aF0.47369959088252483
aF0.3461538461538462
aF0.41146413972500928
aF0.34986772486772483
aF0.40313913393936679
aF0.36221370341614906
aF0
aF0.38421849201981284
aF0.40448943661971831
aF0.36868686868686867
aF0.37291695517702994
aF0.37383139508575047
aF0.39362902525822407
aF0.36731259838245672
aF0.34358974358974359
aF0.87179487179487181
aF0
aF0.39072327044025157
aF0.21590909090909091
aF0.32631578947368423
aF0.30925925925925923
aF0.46202531645569617
aF0.26535087719298245
aF0.79746835443037978
aF0.54434250764525993
aF0.7012987012987012
aF0.44240506329113927
aF0.61538461538461531
aF0.46153846153846145
aF0.63636363636363624
aF0.55982905982905984
aF0.53991596638655459
aF0
aF0.42628205128205127
aF0
aF0.27561728395061724
aF0.40682800345721692
aF0.29999999999999999
aF0.41743970315398882
aF0.34857723577235772
aF0.59843749999999996
aF0.48275862068965514
aF0.27637130801687759
aF0.3595890410958904
aF0.6071428571428571
aF0.53991596638655459
aF0.23417721518987342
aF0.51476793248945141
aF0.49367088607594933
aF0.39903846153846151
aF0.20222222222222219
aF0
aF0.26680672268907557
aF0.63461538461538458
aF0.49397590361445781
aF0.19277108433734938
aF0.58227848101265811
aF0.61502347417840364
aF0.44945054945054941
aF0.22018348623853212
aF0.43217054263565891
aF0.639240506329114
aF0.28027465667915102
aF0.31874999999999998
aF0.35185185185185186
aF0.35588235294117643
aF0.44669365721997301
aF0.5625
aF0.28125
aF0.42901234567901236
aF0.29601226993865026
aI1
aI1
aF0.57368421052631591
aI1
aI1
aI1
aI1
aI1
aI1
aF0.50409356725146193
aF0.33333333333333331
aF0.53091397849462363
aF0.31590909090909092
aF0.24264705882352941
aF0
aF0
aF0.64794007490636707
aF0.61585365853658536
aF0.68902439024390238
aF0.23366477272727273
aF0.090811965811965795
aF0.93827160493827166
aI1
aF0
aF0.6402439024390244
aF0.4847560975609756
aF0.43635670731707316
aF0.2724279835390947
aF0.39820047590719809
aF0.35576923076923078
aF0.46747448979591844
aF0
aF0.18367346938775508
aF0
aF0.43548387096774194
aI1
aF0.6785714285714286
aI1
aF0.39508608321377336
aF0.17558139534883721
aF0
aF0.37202380952380953
aF0.42901234567901236
aF0.25070224719101125
aI1
aF0.31402439024390244
aF0.19365079365079363
aF0.98076923076923073
aI1
aF0
aF0.50784313725490193
aF0.54471544715447151
aI1
aF0
aF0.14304123711340205
assS'heur_weight'
p379
(dp380
g361
(lp381
I0
aI0
aI0
aI0
aI0
aI0
aI0
aI0
aI0
aI0
aI0
aI3
aI0
aI0
aI0
aI0
aI0
aI0
aI0
aI0
aI0
aI0
aI0
aI0
aI0
aI0
aI0
aI0
aI0
aI0
aI0
aI0
aI2
aI15
aI15
aI14
aI0
aI4
aI1
aI20
aI1
aI1
aI0
aI0
aI2
aI0
aI0
aI0
aI0
aI1
aI8
aI5
aI0
aI0
aI0
aI0
aI0
aI0
aI0
aI0
aI0
aI0
aI0
aI0
aI0
aI0
aI0
aI0
aI0
aI0
aI0
aI0
aI0
aI0
aI0
aI0
aI0
aI0
aI0
aI0
aI0
aI0
aI45
aI24
aI23
aI23
aI0
aI0
aI2
aI1
aI0
aI0
aI0
aI0
aI0
aI0
aI0
aI23
aI4
aI11
aI23
aI20
aI20
aI1
aI0
aI0
aI0
aI0
aI1
aI0
aI0
aI0
aI0
aI0
aI1
aI0
aI0
aI0
aI0
aI0
aI0
aI0
aI20
aI20
aI0
aI0
aI0
aI0
aI0
aI21
aI0
aI0
aI0
aI0
aI0
aI0
aI1
aI0
aI0
aI0
aI0
aI0
aI0
aI1
aI0
aI0
aI0
aI0
aI13
aI7
aI4
aI0
aI0
aI0
aI0
aI3
aI0
aI0
aI0
aI0
aI0
aI4
aI15
aI14
aI10
aI9
aI10
aI11
aI11
aI9
aI1
aI0
aI0
aI0
aI0
aI0
aI0
aI2
aI0
aI0
aI0
aI0
aI0
aI0
aI0
aI1
aI1
aI0
aI1
aI0
aI0
aI0
aI0
aI0
aI0
aI0
aI0
aI0
aI0
aI14
aI16
aI0
aI0
aI0
aI0
aI0
aI1
aI0
aI0
aI0
aI0
aI0
aI0
aI0
aI0
aI5
aI0
aI21
aI19
aI23
aI41
aI9
aI80
aI34
aI6
aI24
aI1
aI5
aI21
aI1
aI58
aI37
aI1
aI11
aI4
aI0
aI86
aI77
aI91
aI19
aI1
aI0
aI1
aI0
aI0
aI1
aI2
aI0
aI2
aI0
aI2
aI1
aI3
aI0
aI0
aI0
aI0
aI0
aI0
aI0
aI0
aI12
aI41
aI0
aI4
aI0
aI0
aI0
aI0
aI0
aI0
aI0
aI0
aI0
aI0
aI0
aI0
aI0
aI0
aI0
aI0
aI0
aI0
aI0
aI0
aI0
aI0
aI0
aI1
aI0
aI0
aI0
aI6
aI0
aI0
aI0
aI0
aI0
aI0
aI3
aI0
aI0
aI0
aI0
aI0
aI0
aI1
aI0
aI0
aI0
aI0
aI0
aI0
aI0
aI0
aI1
aI0
aI0
aI0
aI0
aI1
aI0
aI0
aI0
aI0
aI36
aI0
aI0
aI1
aI0
aI0
aI0
aI0
aI0
aI0
aI14
aI0
aI0
aI0
aI0
aI1
aI0
aI1
aI0
aI0
aI0
aI1
aI0
aI0
aI0
aI0
aI0
asg368
(lp382
I1
aI1
aF1
aF1
aI1
aI1
aF1
aF1
aI1
aF1
aF1
aF0.66666666666666663
aF1
aF1
aI1
aI1
aF1
aF1
aI1
aI1
aI1
aI1
aF1
aF1
aI1
aI1
aI1
aI1
aI1
aF1
aF1
aF1
aF0.59999999999999998
aF0.70588235294117652
aF0.71698113207547165
aF0.7142857142857143
aI1
aF0.59999999999999998
aF0
aF0.62264150943396224
aF0.5
aF0
aI1
aI1
aF0.75
aI1
aI1
aI1
aI1
aF0
aF0.74193548387096775
aF0.83333333333333337
aI1
aI1
aF1
aI1
aI1
aI1
aI1
aI1
aF1
aF1
aF1
aF1
aF1
aF1
aF1
aF1
aI1
aI1
aI1
aI1
aI1
aI1
aI1
aI1
aI1
aF1
aI1
aF1
aI1
aI1
aF0.39189189189189189
aF0.67567567567567566
aF0.68918918918918914
aF0.68918918918918914
aI1
aI1
aF0
aF0.875
aI1
aI1
aI1
aF1
aI1
aI1
aI1
aF0.68055555555555558
aF0.73333333333333328
aF0.67647058823529416
aF0.68055555555555558
aF0.72222222222222221
aF0.72222222222222221
aF0.75
aI1
aI1
aI1
aF1
aF0
aF1
aF1
aI1
aI1
aF1
aF0
aI1
aI1
aI1
aI1
aI1
aI1
aI1
aF0.72222222222222221
aF0.72222222222222221
aI1
aI1
aI1
aI1
aI1
aF0.63157894736842102
aI1
aI1
aI1
aI1
aI1
aI1
aF0
aF1
aF1
aF1
aF1
aF1
aF1
aF0.5
aF1
aF1
aI1
aI1
aF0.67500000000000004
aF0.78787878787878785
aF0.87878787878787878
aF1
aI1
aF1
aF1
aF0.5714285714285714
aF1
aF1
aF1
aF1
aF1
aF0.33333333333333331
aF0.65116279069767447
aF0.70833333333333337
aF0.79166666666666663
aF0.8125
aF0.80769230769230771
aF0.78431372549019607
aF0.77551020408163263
aF0.80000000000000004
aF0.5
aF1
aF1
aF1
aF1
aF1
aF1
aF0.33333333333333331
aF1
aF1
aF1
aF1
aF1
aF1
aF1
aF0.5
aF0.5
aF1
aF0.66666666666666663
aF1
aI1
aI1
aF1
aF1
aF1
aF1
aF1
aI1
aF1
aF0.75438596491228072
aF0.51515151515151514
aF1
aF1
aF1
aF1
aF1
aF0.66666666666666663
aF1
aF1
aI1
aF1
aI1
aF1
aF1
aF1
aF0.66666666666666663
aF1
aF0.70833333333333337
aF0.73239436619718312
aF0.66176470588235292
aF0.66393442622950816
aF0.88749999999999996
aF0.73421926910299007
aF0.69090909090909092
aF0.625
aF0.46666666666666667
aF0.96551724137931039
aF0.80769230769230771
aF0.69565217391304346
aF0.95238095238095233
aF0.57664233576642332
aF0.80729166666666663
aF0
aF0.88043478260869568
aF0.75
aF1
aF0.50574712643678166
aF0.73170731707317072
aF0.67615658362989328
aF0.7865168539325843
aF0.80000000000000004
aF1
aF0
aF1
aF1
aF0.80000000000000004
aF0.33333333333333331
aF1
aF0.33333333333333331
aF1
aF0.77777777777777779
aF0.75
aF0.69999999999999996
aF1
aF1
aF1
aF1
aF1
aF1
aF1
aF1
aF0.40000000000000002
aF0.5393258426966292
aF1
aF0.81818181818181823
aF1
aF1
aF1
aF1
aF1
aF1
aF1
aF1
aF1
aF1
aF1
aF1
aF1
aF1
aF1
aF1
aF1
aF1
aF1
aF1
aF1
aF1
aF1
aF0.88888888888888884
aF1
aF1
aF1
aF0.68421052631578949
aF1
aF1
aF1
aF1
aI1
aI1
aF0.40000000000000002
aI1
aI1
aI1
aI1
aI1
aI1
aF0.88888888888888884
aF1
aF1
aF1
aF1
aF1
aF1
aF1
aF1
aF0.5
aF1
aF1
aF1
aI1
aF0
aF1
aF1
aF1
aF1
aF0.56097560975609762
aF1
aF1
aF0
aF1
aF1
aF1
aI1
aF1
aI1
aF0.58823529411764708
aF1
aF1
aF1
aF1
aF0.875
aI1
aF0.5
aF1
aF1
aI1
aF0
aF1
aF1
aI1
aF1
aF1
asg370
(lp383
F0.00023007392883300781
aF4.2200088500976562e-05
aF0.00090909004211425781
aF0.0018448829650878906
aF0.0011508464813232422
aF0.0008449554443359375
aF0.0010008811950683594
aF0.0010049343109130859
aF0.0014970302581787109
aF0.00094199180603027344
aF0.0018069744110107422
aF0.0028431415557861328
aF0.0010721683502197266
aF0.00080990791320800781
aF0.0009670257568359375
aF0.00084996223449707031
aF0.0010130405426025391
aF0.0010628700256347656
aF0.00094485282897949219
aF0.0010209083557128906
aF0.00092005729675292969
aF0.00095796585083007812
aF0.0010619163513183594
aF0.0014259815216064453
aF0.0011439323425292969
aF0.0011401176452636719
aF0.0012419223785400391
aF0.0011460781097412109
aF0.0011439323425292969
aF0.0013649463653564453
aF0.00168609619140625
aF0.0049710273742675781
aF0.0035240650177001953
aF0.0018980503082275391
aF0.0019640922546386719
aF0.0017569065093994141
aF3.7908554077148438e-05
aF0.0038590431213378906
aF0.0013070106506347656
aF0.0035128593444824219
aF0.0063679218292236328
aF0.00091600418090820312
aF4.00543212890625e-05
aF0.0023260116577148438
aF0.0023570060729980469
aF0.0026090145111083984
aF0.00267791748046875
aF0.0020570755004882812
aF0.0025131702423095703
aF0.0031881332397460938
aF0.0022768974304199219
aF0.0021998882293701172
aF0.0012209415435791016
aF0.0023138523101806641
aF0.0027298927307128906
aF0.0022017955780029297
aF0.0023808479309082031
aF0.0022280216217041016
aF0.0022480487823486328
aF0.0034608840942382812
aF0.0023560523986816406
aF0.0021498203277587891
aF0.0023858547210693359
aF0.0022490024566650391
aF0.0010039806365966797
aF0.0015869140625
aF0.0023360252380371094
aF0.0024061203002929688
aF0.0023310184478759766
aF0.0022528171539306641
aF0.00226593017578125
aF0.0022580623626708984
aF0.0023260116577148438
aF0.0022869110107421875
aF0.0022759437561035156
aF0.0022900104522705078
aF0.0022149085998535156
aF0.0011129379272460938
aF9.7036361694335938e-05
aF0.0024249553680419922
aF0.0022721290588378906
aF0.0023748874664306641
aF0.0044200420379638672
aF0.00073289871215820312
aF0.00072908401489257812
aF0.000640869140625
aF0.0023140907287597656
aF0.0022649765014648438
aF0.002349853515625
aF0.0024149417877197266
aF0.0022690296173095703
aF0.00226593017578125
aF0.0022990703582763672
aF0.00232696533203125
aF0.0022618770599365234
aF0.0024669170379638672
aF0.0023610591888427734
aF0.0022840499877929688
aF0.00066995620727539062
aF0.0017130374908447266
aF0.0027968883514404297
aF0.0026509761810302734
aF0.0032129287719726562
aF0.0040571689605712891
aF0.0023968219757080078
aF0.002410888671875
aF0.0030131340026855469
aF0.00261688232421875
aF0.0023012161254882812
aF0.0027449131011962891
aF0.002429962158203125
aF0.0018751621246337891
aF4.1961669921875e-05
aF0.0024449825286865234
aF0.0030570030212402344
aF0.0023858547210693359
aF0.0023810863494873047
aF0.0025010108947753906
aF0.0023300647735595703
aF0.0024230480194091797
aF0.0024459362030029297
aF0.0024869441986083984
aF0.0026400089263916016
aF0.0023798942565917969
aF0.002429962158203125
aF0.0028111934661865234
aF0.0024828910827636719
aF0.0024850368499755859
aF0.0023920536041259766
aF0.0024838447570800781
aF0.00087594985961914062
aF0.0016448497772216797
aF3.910064697265625e-05
aF0.0023481845855712891
aF0.0024569034576416016
aF0.0023939609527587891
aF0.0023281574249267578
aF0.0027079582214355469
aF0.0022509098052978516
aF0.0025160312652587891
aF0.0024001598358154297
aF0.0026938915252685547
aF0.0024690628051757812
aF0.0024828910827636719
aF0.0022461414337158203
aF0.0025050640106201172
aF0.00015616416931152344
aF3.910064697265625e-05
aF0.0013790130615234375
aF0.0024409294128417969
aF0.0024249553680419922
aF0.0023419857025146484
aF3.8862228393554688e-05
aF0.0027990341186523438
aF0.0025620460510253906
aF0.0010941028594970703
aF0.0024089813232421875
aF0.0024919509887695312
aF0.0022830963134765625
aF0.0023720264434814453
aF0.0026330947875976562
aF0.0023658275604248047
aF0.0020220279693603516
aF0.0023510456085205078
aF0.0025589466094970703
aF0.0025150775909423828
aF0.0027911663055419922
aF0.0024249553680419922
aF0.0022900104522705078
aF0.0021688938140869141
aF0.00092101097106933594
aF0.0030338764190673828
aF0.0024230480194091797
aF0.0023889541625976562
aF0.0025420188903808594
aF0.0022640228271484375
aF0.0026569366455078125
aF0.00079417228698730469
aF0.0025920867919921875
aF0.0023961067199707031
aF0.0024991035461425781
aF0.0025160312652587891
aF0.0025041103363037109
aF0.0025141239166259766
aF0.0009899139404296875
aF0.0025470256805419922
aF0.0024669170379638672
aF0.0023920536041259766
aF0.0024240016937255859
aF0.0018191337585449219
aF4.482269287109375e-05
aF0.00095391273498535156
aF0.0024230480194091797
aF0.0024030208587646484
aF0.0025460720062255859
aF0.00244903564453125
aF0.0023298263549804688
aF4.6014785766601562e-05
aF0.001071929931640625
aF0.0025129318237304688
aF0.002429962158203125
aF0.0024240016937255859
aF0.0024471282958984375
aF0.0023488998413085938
aF0.0023179054260253906
aF0.0010559558868408203
aF0.0033268928527832031
aF0.0023620128631591797
aF0.0015439987182617188
aF3.7908554077148438e-05
aF0.0025861263275146484
aF4.00543212890625e-05
aF0.0010340213775634766
aF0.0025811195373535156
aF0.0026628971099853516
aF0.0025188922882080078
aF0.0023839473724365234
aF0.0025010108947753906
aF0.0024619102478027344
aF0.0045990943908691406
aF0.0046319961547851562
aF0.0026140213012695312
aF0.011546134948730469
aF0.0035798549652099609
aF0.0016920566558837891
aF0.0025320053100585938
aF0.0018050670623779297
aF0.0012729167938232422
aF0.0025360584259033203
aF0.0025510787963867188
aF0.0057811737060546875
aF0.011800050735473633
aF7.915496826171875e-05
aF0.0049061775207519531
aF0.0023250579833984375
aF0.001483917236328125
aF0.0079059600830078125
aF0.011739969253540039
aF0.011234045028686523
aF0.0066161155700683594
aF0.0024640560150146484
aF0.0025608539581298828
aF0.00083589553833007812
aF0.0033810138702392578
aF0.0025229454040527344
aF0.0023789405822753906
aF0.0027761459350585938
aF0.0028100013732910156
aF0.0023729801177978516
aF0.0025930404663085938
aF0.0033779144287109375
aF0.0023829936981201172
aF0.0024628639221191406
aF0.0025401115417480469
aF0.0024099349975585938
aF0.0024449825286865234
aF0.0023758411407470703
aF0.0010950565338134766
aF0.0024349689483642578
aF0.0024399757385253906
aF0.0025250911712646484
aF0.0025181770324707031
aF0.0039792060852050781
aF0.00046706199645996094
aF0.0015439987182617188
aF0.0033140182495117188
aF0.002590179443359375
aF0.0026471614837646484
aF0.0024430751800537109
aF0.0024118423461914062
aF0.0025241374969482422
aF0.0010540485382080078
aF0.00261688232421875
aF0.0024418830871582031
aF0.0025379657745361328
aF0.002490997314453125
aF0.0023319721221923828
aF0.0026600360870361328
aF0.0010519027709960938
aF0.0024449825286865234
aF0.0026330947875976562
aF0.0026259422302246094
aF0.0024309158325195312
aF0.0025260448455810547
aF0.0028150081634521484
aF0.0033018589019775391
aF0.0026149749755859375
aF0.0024390220642089844
aF0.0027420520782470703
aF0.0025758743286132812
aF0.0022299289703369141
aF0.002574920654296875
aF0.0012280941009521484
aF0.0027470588684082031
aF0.0025072097778320312
aF0.0026810169219970703
aF0.0049710273742675781
aF0.0025048255920410156
aF0.0025551319122314453
aF0.0011789798736572266
aF0.00095105171203613281
aF0.0026490688323974609
aF0.0029230117797851562
aF0.0025439262390136719
aF0.0024669170379638672
aF0.0026261806488037109
aF0.0030081272125244141
aF0.002864837646484375
aF0.0029499530792236328
aF0.0026519298553466797
aF0.0025770664215087891
aF0.0026030540466308594
aF0.0024189949035644531
aF0.0027730464935302734
aF0.0026040077209472656
aF0.0025990009307861328
aF0.0027928352355957031
aF0.0025691986083984375
aF0.0024878978729248047
aF0.0023519992828369141
aF4.5061111450195312e-05
aF0.0025489330291748047
aF0.0024290084838867188
aF0.0026280879974365234
aF0.0025849342346191406
aF0.0027260780334472656
aF0.00085687637329101562
aF0.0017781257629394531
aF3.9815902709960938e-05
aF0.0056459903717041016
aF0.0025207996368408203
aF0.0029900074005126953
aF0.0029768943786621094
aF0.00029993057250976562
aF4.6014785766601562e-05
aF0.0035588741302490234
aF0.0026240348815917969
aF0.0030088424682617188
aF0.0027151107788085938
aF0.0030019283294677734
aF0.0028309822082519531
aF0.0025730133056640625
aF0.0025320053100585938
aF0.0028300285339355469
aF0.0023999214172363281
aF0.00012898445129394531
aF0.00013399124145507812
aF0.0027070045471191406
aF0.0026290416717529297
aF4.8160552978515625e-05
aF0.0025730133056640625
aF0.0031628608703613281
asg2
(lp384
I1
aI1
aI123
aI123
aI1
aI1
aI123
aI123
aI1
aI123
aI123
aI123
aI123
aI123
aI1
aI1
aI123
aI123
aI1
aI1
aI1
aI1
aI123
aI123
aI1
aI1
aI1
aI1
aI1
aI123
aI123
aI123
aI123
aI123
aI123
aI123
aI1
aI123
aI123
aI123
aI123
aI123
aI1
aI1
aI123
aI1
aI1
aI1
aI1
aI123
aI123
aI123
aI1
aI1
aI123
aI1
aI1
aI1
aI1
aI1
aI123
aI123
aI123
aI123
aI123
aI123
aI123
aI123
aI1
aI1
aI1
aI1
aI1
aI1
aI1
aI1
aI1
aI123
aI1
aI123
aI1
aI1
aI123
aI123
aI123
aI123
aI1
aI1
aI123
aI123
aI1
aI1
aI1
aI123
aI1
aI1
aI1
aI123
aI123
aI123
aI123
aI123
aI123
aI123
aI1
aI1
aI1
aI123
aI123
aI123
aI123
aI1
aI1
aI123
aI123
aI1
aI1
aI1
aI1
aI1
aI1
aI1
aI123
aI123
aI1
aI1
aI1
aI1
aI1
aI123
aI1
aI1
aI1
aI1
aI1
aI1
aI123
aI123
aI123
aI123
aI123
aI123
aI123
aI123
aI123
aI123
aI1
aI1
aI123
aI123
aI123
aI123
aI1
aI123
aI123
aI123
aI123
aI123
aI123
aI123
aI123
aI123
aI123
aI123
aI123
aI123
aI123
aI123
aI123
aI123
aI123
aI123
aI123
aI123
aI123
aI123
aI123
aI123
aI123
aI123
aI123
aI123
aI123
aI123
aI123
aI123
aI123
aI123
aI123
aI123
aI1
aI1
aI123
aI123
aI123
aI123
aI123
aI1
aI123
aI123
aI123
aI123
aI123
aI123
aI123
aI123
aI123
aI123
aI123
aI1
aI123
aI1
aI123
aI123
aI123
aI123
aI123
aI123
aI123
aI123
aI123
aI123
aI123
aI123
aI123
aI123
aI123
aI123
aI123
aI123
aI123
aI123
aI123
aI123
aI123
aI123
aI123
aI123
aI123
aI123
aI123
aI123
aI123
aI123
aI123
aI123
aI123
aI123
aI123
aI123
aI123
aI123
aI123
aI123
aI123
aI123
aI123
aI123
aI123
aI123
aI123
aI123
aI123
aI123
aI123
aI123
aI123
aI123
aI123
aI123
aI123
aI123
aI123
aI123
aI123
aI123
aI123
aI123
aI123
aI123
aI123
aI123
aI123
aI123
aI123
aI123
aI123
aI123
aI123
aI123
aI123
aI123
aI123
aI123
aI123
aI123
aI123
aI1
aI1
aI123
aI1
aI1
aI1
aI1
aI1
aI1
aI123
aI123
aI123
aI123
aI123
aI123
aI123
aI123
aI123
aI123
aI123
aI123
aI123
aI1
aI123
aI123
aI123
aI123
aI123
aI123
aI123
aI123
aI123
aI123
aI123
aI123
aI1
aI123
aI1
aI123
aI123
aI123
aI123
aI123
aI123
aI1
aI123
aI123
aI123
aI1
aI123
aI123
aI123
aI1
aI123
aI123
asg373
(lp385
I0
aI0
aI1
aI1
aI0
aI0
aI1
aI1
aI0
aI4
aI4
aI6
aI1
aI1
aI0
aI0
aI3
aI1
aI0
aI0
aI0
aI0
aI4
aI1
aI0
aI0
aI0
aI0
aI0
aI1
aI5
aI11
aI3
aI36
aI38
aI35
aI0
aI6
aI0
aI33
aI1
aI0
aI0
aI0
aI6
aI0
aI0
aI0
aI0
aI0
aI23
aI25
aI0
aI0
aI1
aI0
aI0
aI0
aI0
aI0
aI1
aI1
aI1
aI1
aI3
aI1
aI2
aI1
aI0
aI0
aI0
aI0
aI0
aI0
aI0
aI0
aI0
aI1
aI0
aI1
aI0
aI0
aI29
aI50
aI51
aI51
aI0
aI0
aI0
aI7
aI0
aI0
aI0
aI1
aI0
aI0
aI0
aI49
aI11
aI23
aI49
aI52
aI52
aI3
aI0
aI0
aI0
aI1
aI0
aI1
aI1
aI0
aI0
aI2
aI0
aI0
aI0
aI0
aI0
aI0
aI0
aI0
aI52
aI52
aI0
aI0
aI0
aI0
aI0
aI36
aI0
aI0
aI0
aI0
aI0
aI0
aI0
aI2
aI1
aI1
aI2
aI1
aI1
aI1
aI1
aI2
aI0
aI0
aI27
aI26
aI29
aI33
aI0
aI1
aI1
aI4
aI2
aI1
aI1
aI1
aI1
aI2
aI28
aI34
aI38
aI39
aI42
aI40
aI38
aI36
aI1
aI17
aI2
aI1
aI2
aI3
aI3
aI1
aI15
aI1
aI2
aI1
aI1
aI3
aI1
aI1
aI1
aI1
aI2
aI1
aI0
aI0
aI1
aI2
aI1
aI1
aI2
aI0
aI2
aI43
aI17
aI2
aI1
aI2
aI1
aI1
aI2
aI1
aI1
aI0
aI1
aI0
aI1
aI1
aI2
aI10
aI15
aI51
aI52
aI45
aI81
aI71
aI221
aI76
aI10
aI21
aI28
aI21
aI48
aI20
aI79
aI155
aI0
aI81
aI12
aI11
aI88
aI210
aI190
aI70
aI4
aI2
aI0
aI6
aI4
aI4
aI1
aI1
aI1
aI2
aI7
aI3
aI7
aI3
aI3
aI3
aI3
aI7
aI2
aI2
aI2
aI8
aI48
aI3
aI18
aI6
aI4
aI11
aI3
aI2
aI3
aI7
aI3
aI3
aI3
aI4
aI3
aI3
aI7
aI3
aI7
aI7
aI3
aI3
aI5
aI5
aI6
aI2
aI8
aI3
aI3
aI2
aI13
aI3
aI3
aI2
aI2
aI0
aI0
aI2
aI0
aI0
aI0
aI0
aI0
aI0
aI8
aI8
aI4
aI5
aI4
aI1
aI1
aI3
aI1
aI1
aI8
aI6
aI2
aI0
aI0
aI2
aI2
aI16
aI15
aI46
aI2
aI14
aI0
aI7
aI2
aI5
aI0
aI4
aI0
aI20
aI5
aI1
aI4
aI9
aI7
aI0
aI1
aI7
aI1
aI0
aI0
aI6
aI3
aI0
aI2
aI4
asg375
(lp386
I0
aI0
aI8
aI33
aI0
aI0
aI1
aI1
aI0
aI1
aI1
aI8
aI6
aI2
aI0
aI0
aI1
aI21
aI0
aI0
aI0
aI0
aI2
aI2
aI0
aI0
aI0
aI0
aI0
aI3
aI3
aI2
aI5
aI1
aI1
aI1
aI0
aI12
aI0
aI3
aI57
aI0
aI0
aI0
aI12
aI0
aI0
aI0
aI0
aI0
aI2
aI1
aI0
aI0
aI35
aI0
aI0
aI0
aI0
aI0
aI45
aI41
aI31
aI1
aI1
aI1
aI1
aI25
aI0
aI0
aI0
aI0
aI0
aI0
aI0
aI0
aI0
aI21
aI0
aI17
aI0
aI0
aI29
aI1
aI1
aI1
aI0
aI0
aI0
aI1
aI0
aI0
aI0
aI37
aI0
aI0
aI0
aI1
aI1
aI1
aI1
aI1
aI1
aI3
aI0
aI0
aI0
aI24
aI0
aI35
aI2
aI0
aI0
aI1
aI0
aI0
aI0
aI0
aI0
aI0
aI0
aI0
aI1
aI1
aI0
aI0
aI0
aI0
aI0
aI3
aI0
aI0
aI0
aI0
aI0
aI0
aI0
aI10
aI11
aI3
aI1
aI1
aI1
aI1
aI1
aI1
aI0
aI0
aI1
aI1
aI1
aI1
aI0
aI1
aI1
aI5
aI1
aI1
aI1
aI1
aI1
aI1
aI1
aI1
aI1
aI1
aI1
aI1
aI1
aI1
aI18
aI1
aI1
aI12
aI2
aI1
aI2
aI2
aI1
aI1
aI1
aI1
aI1
aI1
aI1
aI1
aI1
aI1
aI1
aI1
aI0
aI0
aI1
aI1
aI1
aI1
aI1
aI0
aI2
aI1
aI1
aI1
aI1
aI1
aI1
aI11
aI1
aI1
aI1
aI0
aI1
aI0
aI11
aI1
aI1
aI1
aI1
aI1
aI1
aI1
aI1
aI1
aI1
aI1
aI5
aI20
aI1
aI1
aI1
aI1
aI1
aI1
aI0
aI1
aI7
aI1
aI1
aI1
aI1
aI2
aI9
aI4
aI0
aI2
aI1
aI1
aI1
aI1
aI1
aI1
aI1
aI1
aI1
aI1
aI1
aI1
aI1
aI1
aI2
aI1
aI1
aI1
aI1
aI1
aI1
aI1
aI1
aI1
aI1
aI1
aI1
aI1
aI1
aI1
aI1
aI1
aI1
aI1
aI1
aI1
aI1
aI1
aI1
aI1
aI1
aI1
aI1
aI1
aI1
aI1
aI1
aI1
aI1
aI1
aI1
aI3
aI5
aI0
aI0
aI4
aI0
aI0
aI0
aI0
aI0
aI0
aI2
aI3
aI2
aI3
aI1
aI1
aI1
aI1
aI1
aI1
aI1
aI1
aI1
aI0
aI0
aI1
aI1
aI1
aI1
aI1
aI1
aI1
aI0
aI1
aI1
aI3
aI0
aI1
aI0
aI23
aI1
aI1
aI1
aI1
aI2
aI0
aI21
aI1
aI23
aI0
aI0
aI1
aI1
aI0
aI1
aI2
asg377
(lp387
I1
aI1
aF0.73214285714285721
aF0.43965517241379309
aI1
aI1
aF0.97999999999999998
aF0.9838709677419355
aI1
aF0.93333333333333335
aF0.84745762711864403
aF0.42716049382716043
aF0.8035714285714286
aF0.94444444444444442
aI1
aI1
aF0.93434343434343436
aF0.37878787878787878
aI1
aI1
aI1
aI1
aF0.82575757575757569
aF0.95714285714285707
aI1
aI1
aI1
aI1
aI1
aF0.9375
aF0.8529411764705882
aF0.84176136363636367
aF0.4380530973451327
aF0.48235294117647065
aF0.4923919659160072
aF0.48280423280423285
aI1
aF0.43145161290322581
aF0
aF0.43522574123989216
aF0.36083743842364535
aF0
aI1
aI1
aF0.43918918918918914
aI1
aI1
aI1
aI1
aF0
aF0.51547515257192678
aF0.64082125603864737
aI1
aI1
aF0.56874999999999998
aI1
aI1
aI1
aI1
aI1
aF0.39864864864864863
aF0.42957746478873238
aF0.59868421052631571
aF0.99295774647887325
aF0.63020833333333326
aF0.9893617021276595
aF0.94594594594594594
aF0.67333333333333345
aI1
aI1
aI1
aI1
aI1
aI1
aI1
aI1
aI1
aF0.41428571428571431
aI1
aF0.77702702702702708
aI1
aI1
aF0.24431500465983225
aF0.44740686632578525
aF0.45169831994156312
aF0.45169831994156312
aI1
aI1
aF0
aF0.67351973684210531
aI1
aI1
aI1
aF0.5067567567567568
aI1
aI1
aI1
aF0.44361111111111112
aF0.48947368421052628
aF0.44246646026831787
aF0.45440423976608191
aF0.4691154970760234
aF0.47277046783625731
aF0.71691176470588236
aI1
aI1
aI1
aF0.68666666666666665
aF0
aF0.54605263157894735
aF0.98051948051948046
aI1
aI1
aF0.87820512820512819
aF0
aI1
aI1
aI1
aI1
aI1
aI1
aI1
aF0.47112573099415206
aF0.47350146198830412
aI1
aI1
aI1
aI1
aI1
aF0.40242581763049595
aI1
aI1
aI1
aI1
aI1
aI1
aF0
aF0.73684210526315785
aF0.85416666666666663
aF0.96794871794871795
aF0.8571428571428571
aF0.99324324324324331
aF0.99367088607594944
aF0.49671052631578944
aF0.99305555555555558
aF0.97368421052631571
aI1
aI1
aF0.46107954545454555
aF0.57216905901116422
aF0.68560606060606066
aF0.76989898989898997
aI1
aF0.99358974358974361
aF0.99375000000000002
aF0.37788018433179721
aF0.96052631578947367
aF0.99358974358974361
aF0.9933333333333334
aF0.99342105263157887
aF0.9933333333333334
aF0.25974025974025972
aF0.45287637698898409
aF0.51666666666666672
aF0.58166666666666667
aF0.6015625
aF0.57598499061913699
aF0.58008658008658009
aF0.57584114726971858
aF0.59130434782608698
aF0.18749999999999997
aF0.74785539215686281
aF0.90384615384615385
aF0.85064935064935054
aF0.85256410256410253
aF0.8851351351351352
aF0.85569105691056913
aF0.31249999999999994
aF0.81150793650793651
aF0.99358974358974361
aF0.81818181818181812
aF0.99358974358974361
aF0.99350649350649345
aF0.82067510548523215
aF0.98333333333333339
aF0.49679487179487181
aF0.49679487179487181
aF0.99350649350649345
aF0.65811965811965811
aF0.99122807017543857
aI1
aI1
aF0.99358974358974361
aF0.78205128205128205
aF0.99367088607594944
aF0.99358974358974361
aF0.86184210526315785
aI1
aF0.68181818181818188
aF0.51360773729194786
aF0.35062160062160064
aF0.77922077922077915
aF0.99367088607594944
aF0.97368421052631571
aF0.9933333333333334
aF0.68181818181818188
aF0.53459119496855345
aF0.99350649350649345
aF0.99019607843137247
aI1
aF0.99350649350649345
aI1
aF0.671875
aF0.99358974358974361
aF0.89102564102564097
aF0.50085470085470085
aF0.75256410256410255
aF0.47123015873015878
aF0.49295774647887325
aF0.46306022408963582
aF0.45245365905925206
aF0.51417151162790697
aF0.49925132188479715
aF0.46841294298921421
aF0.47303921568627449
aF0.25826210826210827
aF0.72180011689070722
aF0.58451417004048578
aF0.48160535117056852
aF0.68121693121693117
aF0.38495812995387574
aF0.58871150362318836
aF0
aF0.65213951568519546
aF0.53785211267605637
aF0.81919191919191914
aF0.3812722152979735
aF0.51835829675550926
aF0.45836106047893221
aF0.55419855615263525
aF0.56666666666666665
aF0.75
aF0
aF0.91352201257861643
aF0.97402597402597402
aF0.77894736842105272
aF0.33148148148148143
aF0.99367088607594944
aF0.33114035087719296
aF0.86708860759493678
aF0.4694189602446483
aF0.5308441558441559
aF0.52721518987341764
aF0.77136752136752129
aF0.86538461538461542
aF0.96320346320346317
aF0.98076923076923073
aF0.69537815126050417
aF0.97435897435897434
aF0.98076923076923073
aF0.98717948717948711
aF0.23395061728395064
aF0.36240276577355229
aF0.85555555555555551
aF0.6289424860853432
aF0.96341463414634143
aF0.97499999999999998
aF0.93678160919540232
aF0.98101265822784811
aF0.98630136986301375
aF0.9821428571428571
aF0.74579831932773111
aF0.98101265822784811
aF0.98101265822784811
aF0.98101265822784811
aF0.90705128205128205
aF0.98000000000000009
aF0.98192771084337349
aF0.74579831932773111
aF0.98076923076923073
aF0.95783132530120474
aF0.95783132530120474
aF0.98101265822784811
aF0.97887323943661975
aF0.96813186813186813
aF0.97522935779816511
aF0.96511627906976749
aF0.98734177215189878
aF0.81647940074906367
aF0.98124999999999996
aF0.90046296296296291
aF0.98823529411764699
aF0.51484480431848856
aF0.89374999999999993
aF0.93541666666666667
aF0.95061728395061729
aF0.96932515337423308
aI1
aI1
aF0.3421052631578948
aI1
aI1
aI1
aI1
aI1
aI1
aF0.74736842105263157
aF0.92361111111111105
aF0.793010752688172
aF0.78750000000000009
aF0.97058823529411764
aF0.99382716049382713
aF0.99358974358974361
aF0.9831460674157303
aF0.99390243902439024
aF0.49695121951219512
aF0.91051136363636365
aF0.95726495726495719
aF0.98765432098765438
aI1
aF0
aF0.98780487804878048
aF0.98780487804878048
aF0.61356707317073167
aF0.69341563786008231
aF0.40362879238548488
aF0.96153846153846156
aF0.83801020408163263
aF0
aF0.953656462585034
aF0.98717948717948711
aF0.94301075268817203
aI1
aF0.71428571428571419
aI1
aF0.27331420373027265
aF0.97093023255813959
aF0.99473684210526314
aF0.9642857142857143
aF0.94999999999999996
aF0.83075842696629221
aI1
aF0.375
aF0.89761904761904754
aF0.71153846153846145
aI1
aF0
aF0.88431372549019605
aF0.88821138211382111
aI1
aF0.98235294117647054
aF0.96134020618556704
assS'heur_sort'
p388
(dp389
g361
(lp390
I0
aI0
aI0
aI0
aI0
aI0
aI0
aI0
aI0
aI0
aI0
aI3
aI0
aI0
aI0
aI0
aI0
aI1
aI0
aI0
aI0
aI0
aI0
aI0
aI0
aI0
aI0
aI0
aI0
aI0
aI0
aI1
aI3
aI21
aI19
aI18
aI0
aI5
aI1
aI25
aI1
aI1
aI0
aI0
aI3
aI0
aI0
aI0
aI0
aI1
aI11
aI0
aI0
aI0
aI0
aI0
aI0
aI0
aI0
aI0
aI0
aI0
aI0
aI0
aI1
aI0
aI0
aI0
aI0
aI0
aI0
aI0
aI0
aI0
aI0
aI0
aI0
aI1
aI0
aI0
aI0
aI0
aI71
aI32
aI33
aI38
aI0
aI0
aI1
aI2
aI0
aI0
aI0
aI0
aI0
aI0
aI0
aI33
aI4
aI19
aI35
aI33
aI34
aI1
aI0
aI0
aI0
aI1
aI1
aI0
aI0
aI0
aI0
aI0
aI1
aI0
aI0
aI0
aI0
aI0
aI0
aI0
aI28
aI25
aI0
aI0
aI0
aI0
aI0
aI32
aI0
aI0
aI0
aI0
aI0
aI0
aI0
aI0
aI0
aI0
aI0
aI0
aI0
aI0
aI0
aI0
aI0
aI0
aI19
aI9
aI0
aI0
aI0
aI0
aI0
aI6
aI0
aI0
aI0
aI0
aI0
aI0
aI23
aI16
aI14
aI15
aI13
aI15
aI16
aI14
aI1
aI0
aI0
aI0
aI0
aI0
aI0
aI2
aI0
aI0
aI0
aI0
aI0
aI0
aI0
aI1
aI0
aI0
aI1
aI0
aI0
aI0
aI0
aI0
aI0
aI0
aI0
aI0
aI0
aI16
aI27
aI1
aI0
aI0
aI0
aI0
aI0
aI0
aI0
aI0
aI0
aI0
aI0
aI0
aI0
aI3
aI0
aI30
aI26
aI18
aI67
aI9
aI127
aI45
aI2
aI30
aI24
aI5
aI26
aI2
aI59
aI41
aI1
aI17
aI7
aI1
aI82
aI106
aI128
aI36
aI2
aI1
aI1
aI0
aI0
aI1
aI2
aI0
aI2
aI1
aI2
aI3
aI1
aI0
aI0
aI0
aI0
aI0
aI0
aI0
aI0
aI17
aI48
aI0
aI9
aI0
aI0
aI0
aI0
aI0
aI0
aI0
aI0
aI0
aI0
aI1
aI0
aI0
aI0
aI0
aI0
aI0
aI0
aI0
aI0
aI0
aI0
aI0
aI1
aI0
aI0
aI0
aI3
aI0
aI0
aI0
aI0
aI0
aI0
aI3
aI0
aI0
aI0
aI0
aI0
aI0
aI1
aI0
aI0
aI0
aI0
aI0
aI0
aI0
aI0
aI0
aI0
aI0
aI0
aI0
aI1
aI0
aI0
aI0
aI0
aI41
aI0
aI0
aI1
aI0
aI0
aI0
aI0
aI0
aI0
aI29
aI0
aI0
aI0
aI0
aI0
aI0
aI0
aI1
aI0
aI0
aI1
aI1
aI1
aI0
aI0
aI0
asg368
(lp391
I1
aI1
aF1
aF1
aI1
aI1
aF1
aF1
aI1
aF1
aF1
aF0.66666666666666663
aF1
aF1
aI1
aI1
aF1
aF0
aI1
aI1
aI1
aI1
aF1
aF1
aI1
aI1
aI1
aI1
aI1
aF1
aF1
aF0.90909090909090906
aF0.40000000000000002
aF0.58823529411764708
aF0.64150943396226412
aF0.63265306122448983
aI1
aF0.5
aF0
aF0.52830188679245282
aF0.5
aF0
aI1
aI1
aF0.625
aI1
aI1
aI1
aI1
aF0
aF0.64516129032258063
aF1
aI1
aI1
aF1
aI1
aI1
aI1
aI1
aI1
aF1
aF1
aF1
aF1
aF0.66666666666666663
aF1
aF1
aF1
aI1
aI1
aI1
aI1
aI1
aI1
aI1
aI1
aI1
aF0
aI1
aF1
aI1
aI1
aF0.040540540540540543
aF0.56756756756756754
aF0.55405405405405406
aF0.48648648648648651
aI1
aI1
aF0.5
aF0.75
aI1
aI1
aI1
aF1
aI1
aI1
aI1
aF0.54166666666666663
aF0.73333333333333328
aF0.44117647058823528
aF0.51388888888888884
aF0.54166666666666663
aF0.52777777777777779
aF0.75
aI1
aI1
aI1
aF0
aF0
aF1
aF1
aI1
aI1
aF1
aF0
aI1
aI1
aI1
aI1
aI1
aI1
aI1
aF0.61111111111111116
aF0.65277777777777779
aI1
aI1
aI1
aI1
aI1
aF0.43859649122807015
aI1
aI1
aI1
aI1
aI1
aI1
aF1
aF1
aF1
aF1
aF1
aF1
aF1
aF1
aF1
aF1
aI1
aI1
aF0.52500000000000002
aF0.72727272727272729
aF1
aF1
aI1
aF1
aF1
aF0.14285714285714285
aF1
aF1
aF1
aF1
aF1
aF1
aF0.46511627906976744
aF0.66666666666666663
aF0.70833333333333337
aF0.6875
aF0.75
aF0.70588235294117652
aF0.67346938775510201
aF0.68888888888888888
aF0.5
aF1
aF1
aF1
aF1
aF1
aF1
aF0.33333333333333331
aF1
aF1
aF1
aF1
aF1
aF1
aF1
aF0.5
aF1
aF1
aF0.66666666666666663
aF1
aI1
aI1
aF1
aF1
aF1
aF1
aF1
aI1
aF1
aF0.7192982456140351
aF0.18181818181818182
aF0.5
aF1
aF1
aF1
aF1
aF1
aF1
aF1
aI1
aF1
aI1
aF1
aF1
aF1
aF0.80000000000000004
aF1
aF0.58333333333333337
aF0.63380281690140849
aF0.73529411764705888
aF0.45081967213114754
aF0.88749999999999996
aF0.57807308970099669
aF0.59090909090909094
aF0.875
aF0.33333333333333331
aF0.17241379310344829
aF0.80769230769230771
aF0.62318840579710144
aF0.90476190476190477
aF0.56934306569343063
aF0.78645833333333337
aF0
aF0.81521739130434778
aF0.5625
aF0.90909090909090906
aF0.52873563218390807
aF0.63066202090592338
aF0.54448398576512458
aF0.5955056179775281
aF0.59999999999999998
aF0.5
aF0
aF1
aF1
aF0.80000000000000004
aF0.33333333333333331
aF1
aF0.33333333333333331
aF0.5
aF0.77777777777777779
aF0.25
aF0.90000000000000002
aF1
aF1
aF1
aF1
aF1
aF1
aF1
aF1
aF0.14999999999999999
aF0.4606741573033708
aF1
aF0.59090909090909094
aF1
aF1
aF1
aF1
aF1
aF1
aF1
aF1
aF1
aF1
aF0.75
aF1
aF1
aF1
aF1
aF1
aF1
aF1
aF1
aF1
aF1
aF1
aF1
aF0.88888888888888884
aF1
aF1
aF1
aF0.84210526315789469
aF1
aF1
aF1
aF1
aI1
aI1
aF0.40000000000000002
aI1
aI1
aI1
aI1
aI1
aI1
aF0.88888888888888884
aF1
aF1
aF1
aF1
aF1
aF1
aF1
aF1
aF1
aF1
aF1
aF1
aI1
aF0
aF1
aF1
aF1
aF1
aF0.5
aF1
aF1
aF0
aF1
aF1
aF1
aI1
aF1
aI1
aF0.14705882352941177
aF1
aF1
aF1
aF1
aF1
aI1
aF1
aF0.8571428571428571
aF1
aI1
aF0
aF0.83333333333333337
aF0.66666666666666663
aI1
aF1
aF1
asg370
(lp392
F0.00018191337585449219
aF2.47955322265625e-05
aF0.00080609321594238281
aF0.0016851425170898438
aF0.0007610321044921875
aF0.00067687034606933594
aF0.00074291229248046875
aF0.00089907646179199219
aF0.0012600421905517578
aF0.00085401535034179688
aF0.0015769004821777344
aF0.0024809837341308594
aF0.00071787834167480469
aF0.00076603889465332031
aF0.00079202651977539062
aF0.00077986717224121094
aF0.00093197822570800781
aF0.00089406967163085938
aF0.00085210800170898438
aF0.00084209442138671875
aF0.00083494186401367188
aF0.00083804130554199219
aF0.00089788436889648438
aF0.0012440681457519531
aF0.00099110603332519531
aF0.0010190010070800781
aF0.0010049343109130859
aF0.0010120868682861328
aF0.0010330677032470703
aF0.0011298656463623047
aF0.0013899803161621094
aF0.0044357776641845703
aF0.0029900074005126953
aF0.0016660690307617188
aF0.0016529560089111328
aF0.0014789104461669922
aF2.5033950805664062e-05
aF0.0033121109008789062
aF0.0011720657348632812
aF0.0030748844146728516
aF0.0055899620056152344
aF0.00083613395690917969
aF2.47955322265625e-05
aF0.0021510124206542969
aF0.0019948482513427734
aF0.0022020339965820312
aF0.0021939277648925781
aF0.0012128353118896484
aF0.0022599697113037109
aF0.0027370452880859375
aF0.0019941329956054688
aF0.00189208984375
aF0.0011110305786132812
aF0.0019810199737548828
aF0.0021920204162597656
aF0.0021960735321044922
aF0.0019421577453613281
aF0.0019528865814208984
aF0.001979827880859375
aF0.0029950141906738281
aF0.0020258426666259766
aF0.0019540786743164062
aF0.0020160675048828125
aF0.001873016357421875
aF0.00092291831970214844
aF0.0012578964233398438
aF0.0019629001617431641
aF0.0020070075988769531
aF0.0019969940185546875
aF0.0020389556884765625
aF0.0020010471343994141
aF0.0019989013671875
aF0.0020229816436767578
aF0.0019958019256591797
aF0.0019578933715820312
aF0.0019879341125488281
aF0.0020010471343994141
aF0.00097179412841796875
aF7.9870223999023438e-05
aF0.0019629001617431641
aF0.0022249221801757812
aF0.0020589828491210938
aF0.0038609504699707031
aF0.00032901763916015625
aF0.00034308433532714844
aF0.00044393539428710938
aF0.0020239353179931641
aF0.0019550323486328125
aF0.0020880699157714844
aF0.0020701885223388672
aF0.00202178955078125
aF0.0019719600677490234
aF0.0019750595092773438
aF0.0019829273223876953
aF0.0019829273223876953
aF0.0020570755004882812
aF0.0020699501037597656
aF0.0020089149475097656
aF0.00049114227294921875
aF0.0016300678253173828
aF0.0024549961090087891
aF0.0026090145111083984
aF0.0021429061889648438
aF0.0028631687164306641
aF0.0020442008972167969
aF0.0033459663391113281
aF0.0021820068359375
aF0.0020260810852050781
aF0.0020751953125
aF0.0020890235900878906
aF0.0021140575408935547
aF0.0015439987182617188
aF2.5033950805664062e-05
aF0.0020968914031982422
aF0.0021128654479980469
aF0.0020780563354492188
aF0.0020780563354492188
aF0.0021541118621826172
aF0.0020239353179931641
aF0.0020451545715332031
aF0.0020651817321777344
aF0.0020811557769775391
aF0.0019998550415039062
aF0.0020570755004882812
aF0.0021009445190429688
aF0.0021760463714599609
aF0.0019910335540771484
aF0.00191497802734375
aF0.002079010009765625
aF0.0022079944610595703
aF0.00073599815368652344
aF0.0013241767883300781
aF2.5987625122070312e-05
aF0.0020151138305664062
aF0.0021259784698486328
aF0.0021061897277832031
aF0.0020158290863037109
aF0.0021350383758544922
aF0.0019888877868652344
aF0.0021739006042480469
aF0.0020809173583984375
aF0.0020029544830322266
aF0.0020689964294433594
aF0.0020320415496826172
aF0.0019650459289550781
aF0.0020511150360107422
aF0.00012922286987304688
aF2.5987625122070312e-05
aF0.0012660026550292969
aF0.0020689964294433594
aF0.0020761489868164062
aF0.0020058155059814453
aF2.5033950805664062e-05
aF0.0021259784698486328
aF0.0021960735321044922
aF0.00087714195251464844
aF0.0022120475769042969
aF0.0021300315856933594
aF0.0024788379669189453
aF0.0021069049835205078
aF0.0020089149475097656
aF0.0022151470184326172
aF0.0016260147094726562
aF0.0020940303802490234
aF0.0020709037780761719
aF0.0020668506622314453
aF0.0021550655364990234
aF0.0020890235900878906
aF0.0019819736480712891
aF0.0019221305847167969
aF0.00079512596130371094
aF0.0026690959930419922
aF0.002140045166015625
aF0.0020279884338378906
aF0.0020740032196044922
aF0.0020039081573486328
aF0.0022180080413818359
aF0.00071692466735839844
aF0.0024781227111816406
aF0.0022358894348144531
aF0.0020849704742431641
aF0.0021450519561767578
aF0.0021569728851318359
aF0.0021660327911376953
aF0.00086998939514160156
aF0.0020918846130371094
aF0.0021319389343261719
aF0.0021009445190429688
aF0.0021009445190429688
aF0.0015969276428222656
aF2.5987625122070312e-05
aF0.00084710121154785156
aF0.0021038055419921875
aF0.0021169185638427734
aF0.0021638870239257812
aF0.0021159648895263672
aF0.0020518302917480469
aF2.5033950805664062e-05
aF0.00097012519836425781
aF0.0021440982818603516
aF0.0026261806488037109
aF0.0021739006042480469
aF0.0025179386138916016
aF0.0021989345550537109
aF0.0020959377288818359
aF0.00093603134155273438
aF0.0028131008148193359
aF0.0021178722381591797
aF0.0015180110931396484
aF8.6069107055664062e-05
aF0.0021860599517822266
aF2.9087066650390625e-05
aF0.00086498260498046875
aF0.0021388530731201172
aF0.002140045166015625
aF0.0021321773529052734
aF0.0021469593048095703
aF0.0020868778228759766
aF0.0021581649780273438
aF0.0035979747772216797
aF0.0040740966796875
aF0.0022752285003662109
aF0.010039091110229492
aF0.0032479763031005859
aF0.0014100074768066406
aF0.0020928382873535156
aF0.0015809535980224609
aF0.0010778903961181641
aF0.0021560192108154297
aF0.0020771026611328125
aF0.0047228336334228516
aF0.0092170238494873047
aF4.482269287109375e-05
aF0.0041611194610595703
aF0.0018999576568603516
aF0.0011951923370361328
aF0.0065860748291015625
aF0.011263847351074219
aF0.0099909305572509766
aF0.0056769847869873047
aF0.0030379295349121094
aF0.0025510787963867188
aF0.00060915946960449219
aF0.0028481483459472656
aF0.0021059513092041016
aF0.0021948814392089844
aF0.0024461746215820312
aF0.0021898746490478516
aF0.0021519660949707031
aF0.0021841526031494141
aF0.0030350685119628906
aF0.0020649433135986328
aF0.0020771026611328125
aF0.0020940303802490234
aF0.0021150112152099609
aF0.0020978450775146484
aF0.0021159648895263672
aF0.00095891952514648438
aF0.0020809173583984375
aF0.0021159648895263672
aF0.0021121501922607422
aF0.0021989345550537109
aF0.00345611572265625
aF0.00046300888061523438
aF0.0013968944549560547
aF0.0022661685943603516
aF0.002185821533203125
aF0.002471923828125
aF0.0022299289703369141
aF0.0019700527191162109
aF0.0023648738861083984
aF0.00091910362243652344
aF0.0020701885223388672
aF0.0025858879089355469
aF0.0021469593048095703
aF0.0021231174468994141
aF0.0024321079254150391
aF0.0023069381713867188
aF0.00095391273498535156
aF0.0020899772644042969
aF0.0022377967834472656
aF0.0022361278533935547
aF0.0021209716796875
aF0.0019049644470214844
aF0.0025148391723632812
aF0.0030190944671630859
aF0.0022640228271484375
aF0.0020489692687988281
aF0.0025110244750976562
aF0.0021069049835205078
aF0.0019471645355224609
aF0.0022630691528320312
aF0.0010778903961181641
aF0.0022089481353759766
aF0.0021789073944091797
aF0.0022120475769042969
aF0.0043971538543701172
aF0.0020949840545654297
aF0.0020689964294433594
aF0.0010619163513183594
aF0.00079107284545898438
aF0.0023150444030761719
aF0.0022079944610595703
aF0.0022079944610595703
aF0.0022020339965820312
aF0.0022788047790527344
aF0.0024929046630859375
aF0.0024101734161376953
aF0.0024759769439697266
aF0.0023391246795654297
aF0.0022461414337158203
aF0.002185821533203125
aF0.0023090839385986328
aF0.0023210048675537109
aF0.0023961067199707031
aF0.00222015380859375
aF0.0022950172424316406
aF0.0020680427551269531
aF0.002323150634765625
aF0.0019240379333496094
aF2.5987625122070312e-05
aF0.0021739006042480469
aF0.0024509429931640625
aF0.0022170543670654297
aF0.0022170543670654297
aF0.0022540092468261719
aF0.000659942626953125
aF0.0014829635620117188
aF2.5987625122070312e-05
aF0.0045070648193359375
aF0.0021121501922607422
aF0.0024499893188476562
aF0.0022320747375488281
aF0.00020599365234375
aF0.00011515617370605469
aF0.0022690296173095703
aF0.0023770332336425781
aF0.00263214111328125
aF0.003437042236328125
aF0.0025479793548583984
aF0.0024130344390869141
aF0.0020921230316162109
aF0.0026049613952636719
aF0.0023629665374755859
aF0.0021319389343261719
aF0.00010704994201660156
aF2.5987625122070312e-05
aF0.0022990703582763672
aF0.0026569366455078125
aF2.5987625122070312e-05
aF0.0022599697113037109
aF0.0026021003723144531
asg2
(lp393
I1
aI1
aI123
aI123
aI1
aI1
aI123
aI123
aI1
aI123
aI123
aI123
aI123
aI123
aI1
aI1
aI123
aI123
aI1
aI1
aI1
aI1
aI123
aI123
aI1
aI1
aI1
aI1
aI1
aI123
aI123
aI123
aI123
aI123
aI123
aI123
aI1
aI123
aI123
aI123
aI123
aI123
aI1
aI1
aI123
aI1
aI1
aI1
aI1
aI123
aI123
aI123
aI1
aI1
aI123
aI1
aI1
aI1
aI1
aI1
aI123
aI123
aI123
aI123
aI123
aI123
aI123
aI123
aI1
aI1
aI1
aI1
aI1
aI1
aI1
aI1
aI1
aI123
aI1
aI123
aI1
aI1
aI123
aI123
aI123
aI123
aI1
aI1
aI123
aI123
aI1
aI1
aI1
aI123
aI1
aI1
aI1
aI123
aI123
aI123
aI123
aI123
aI123
aI123
aI1
aI1
aI1
aI123
aI123
aI123
aI123
aI1
aI1
aI123
aI123
aI1
aI1
aI1
aI1
aI1
aI1
aI1
aI123
aI123
aI1
aI1
aI1
aI1
aI1
aI123
aI1
aI1
aI1
aI1
aI1
aI1
aI123
aI123
aI123
aI123
aI123
aI123
aI123
aI123
aI123
aI123
aI1
aI1
aI123
aI123
aI123
aI123
aI1
aI123
aI123
aI123
aI123
aI123
aI123
aI123
aI123
aI123
aI123
aI123
aI123
aI123
aI123
aI123
aI123
aI123
aI123
aI123
aI123
aI123
aI123
aI123
aI123
aI123
aI123
aI123
aI123
aI123
aI123
aI123
aI123
aI123
aI123
aI123
aI123
aI123
aI1
aI1
aI123
aI123
aI123
aI123
aI123
aI1
aI123
aI123
aI123
aI123
aI123
aI123
aI123
aI123
aI123
aI123
aI123
aI1
aI123
aI1
aI123
aI123
aI123
aI123
aI123
aI123
aI123
aI123
aI123
aI123
aI123
aI123
aI123
aI123
aI123
aI123
aI123
aI123
aI123
aI123
aI123
aI123
aI123
aI123
aI123
aI123
aI123
aI123
aI123
aI123
aI123
aI123
aI123
aI123
aI123
aI123
aI123
aI123
aI123
aI123
aI123
aI123
aI123
aI123
aI123
aI123
aI123
aI123
aI123
aI123
aI123
aI123
aI123
aI123
aI123
aI123
aI123
aI123
aI123
aI123
aI123
aI123
aI123
aI123
aI123
aI123
aI123
aI123
aI123
aI123
aI123
aI123
aI123
aI123
aI123
aI123
aI123
aI123
aI123
aI123
aI123
aI123
aI123
aI123
aI123
aI1
aI1
aI123
aI1
aI1
aI1
aI1
aI1
aI1
aI123
aI123
aI123
aI123
aI123
aI123
aI123
aI123
aI123
aI123
aI123
aI123
aI123
aI1
aI123
aI123
aI123
aI123
aI123
aI123
aI123
aI123
aI123
aI123
aI123
aI123
aI1
aI123
aI1
aI123
aI123
aI123
aI123
aI123
aI123
aI1
aI123
aI123
aI123
aI1
aI123
aI123
aI123
aI1
aI123
aI123
asg373
(lp394
I0
aI0
aI1
aI1
aI0
aI0
aI1
aI1
aI0
aI4
aI4
aI6
aI1
aI1
aI0
aI0
aI3
aI0
aI0
aI0
aI0
aI0
aI4
aI1
aI0
aI0
aI0
aI0
aI0
aI1
aI5
aI10
aI2
aI30
aI34
aI31
aI0
aI5
aI0
aI28
aI1
aI0
aI0
aI0
aI5
aI0
aI0
aI0
aI0
aI0
aI20
aI30
aI0
aI0
aI1
aI0
aI0
aI0
aI0
aI0
aI1
aI1
aI1
aI1
aI2
aI1
aI2
aI1
aI0
aI0
aI0
aI0
aI0
aI0
aI0
aI0
aI0
aI0
aI0
aI1
aI0
aI0
aI3
aI42
aI41
aI36
aI0
aI0
aI1
aI6
aI0
aI0
aI0
aI1
aI0
aI0
aI0
aI39
aI11
aI15
aI37
aI39
aI38
aI3
aI0
aI0
aI0
aI0
aI0
aI1
aI1
aI0
aI0
aI2
aI0
aI0
aI0
aI0
aI0
aI0
aI0
aI0
aI44
aI47
aI0
aI0
aI0
aI0
aI0
aI25
aI0
aI0
aI0
aI0
aI0
aI0
aI1
aI2
aI1
aI1
aI2
aI1
aI1
aI2
aI1
aI2
aI0
aI0
aI21
aI24
aI33
aI33
aI0
aI1
aI1
aI1
aI2
aI1
aI1
aI1
aI1
aI6
aI20
aI32
aI34
aI33
aI39
aI36
aI33
aI31
aI1
aI17
aI2
aI1
aI2
aI3
aI3
aI1
aI15
aI1
aI2
aI1
aI1
aI3
aI1
aI1
aI2
aI1
aI2
aI1
aI0
aI0
aI1
aI2
aI1
aI1
aI2
aI0
aI2
aI41
aI6
aI1
aI1
aI2
aI1
aI1
aI3
aI1
aI1
aI0
aI1
aI0
aI1
aI1
aI2
aI12
aI15
aI42
aI45
aI50
aI55
aI71
aI174
aI65
aI14
aI15
aI5
aI21
aI43
aI19
aI78
aI151
aI0
aI75
aI9
aI10
aI92
aI181
aI153
aI53
aI3
aI1
aI0
aI6
aI4
aI4
aI1
aI1
aI1
aI1
aI7
aI1
aI9
aI3
aI3
aI3
aI3
aI7
aI2
aI2
aI2
aI3
aI41
aI3
aI13
aI6
aI4
aI11
aI3
aI2
aI3
aI7
aI3
aI3
aI3
aI3
aI3
aI3
aI7
aI3
aI7
aI7
aI3
aI3
aI5
aI5
aI6
aI2
aI8
aI3
aI3
aI2
aI16
aI3
aI3
aI2
aI2
aI0
aI0
aI2
aI0
aI0
aI0
aI0
aI0
aI0
aI8
aI8
aI4
aI5
aI4
aI1
aI1
aI3
aI1
aI2
aI8
aI6
aI2
aI0
aI0
aI2
aI2
aI16
aI15
aI41
aI2
aI14
aI0
aI7
aI2
aI5
aI0
aI4
aI0
aI5
aI5
aI1
aI4
aI9
aI8
aI0
aI2
aI6
aI1
aI0
aI0
aI5
aI2
aI0
aI2
aI4
asg375
(lp395
I0
aI0
aI1
aI22
aI0
aI0
aI1
aI2
aI0
aI1
aI1
aI3
aI1
aI1
aI0
aI0
aI1
aI0
aI0
aI0
aI0
aI0
aI1
aI2
aI0
aI0
aI0
aI0
aI0
aI3
aI4
aI2
aI5
aI1
aI1
aI1
aI0
aI1
aI0
aI4
aI2
aI0
aI0
aI0
aI19
aI0
aI0
aI0
aI0
aI0
aI6
aI1
aI0
aI0
aI6
aI0
aI0
aI0
aI0
aI0
aI18
aI1
aI1
aI1
aI1
aI1
aI1
aI39
aI0
aI0
aI0
aI0
aI0
aI0
aI0
aI0
aI0
aI0
aI0
aI36
aI0
aI0
aI2
aI1
aI1
aI1
aI0
aI0
aI2
aI4
aI0
aI0
aI0
aI41
aI0
aI0
aI0
aI1
aI1
aI1
aI1
aI1
aI1
aI2
aI0
aI0
aI0
aI0
aI0
aI1
aI1
aI0
aI0
aI1
aI0
aI0
aI0
aI0
aI0
aI0
aI0
aI0
aI1
aI1
aI0
aI0
aI0
aI0
aI0
aI6
aI0
aI0
aI0
aI0
aI0
aI0
aI33
aI1
aI1
aI1
aI1
aI1
aI1
aI1
aI1
aI1
aI0
aI0
aI1
aI1
aI1
aI1
aI0
aI1
aI1
aI19
aI1
aI1
aI1
aI1
aI1
aI1
aI1
aI1
aI1
aI1
aI1
aI1
aI1
aI1
aI17
aI1
aI1
aI2
aI1
aI1
aI1
aI4
aI1
aI1
aI1
aI1
aI1
aI1
aI4
aI1
aI1
aI1
aI1
aI1
aI0
aI0
aI1
aI1
aI1
aI1
aI1
aI0
aI2
aI1
aI1
aI1
aI1
aI1
aI1
aI17
aI1
aI1
aI1
aI0
aI1
aI0
aI2
aI1
aI1
aI1
aI1
aI1
aI1
aI1
aI1
aI1
aI1
aI1
aI8
aI28
aI2
aI1
aI1
aI1
aI1
aI1
aI0
aI1
aI18
aI2
aI1
aI1
aI1
aI1
aI1
aI1
aI0
aI1
aI1
aI1
aI1
aI1
aI1
aI1
aI1
aI1
aI1
aI1
aI1
aI1
aI1
aI1
aI2
aI1
aI1
aI1
aI1
aI1
aI1
aI1
aI1
aI1
aI1
aI1
aI1
aI1
aI1
aI1
aI1
aI1
aI1
aI1
aI1
aI1
aI1
aI1
aI1
aI1
aI1
aI1
aI1
aI1
aI1
aI1
aI1
aI1
aI1
aI1
aI2
aI2
aI2
aI0
aI0
aI2
aI0
aI0
aI0
aI0
aI0
aI0
aI3
aI2
aI7
aI2
aI1
aI1
aI1
aI1
aI1
aI1
aI1
aI1
aI1
aI0
aI0
aI1
aI1
aI1
aI1
aI1
aI1
aI1
aI0
aI1
aI1
aI2
aI0
aI1
aI0
aI16
aI1
aI1
aI1
aI1
aI1
aI0
aI24
aI1
aI36
aI0
aI0
aI1
aI1
aI0
aI1
aI3
asg377
(lp396
I1
aI1
aF0.98214285714285721
aF0.62931034482758619
aI1
aI1
aF0.97999999999999998
aF0.95161290322580649
aI1
aF0.93333333333333335
aF0.82627118644067798
aF0.5888888888888888
aF0.98214285714285721
aF0.98148148148148151
aI1
aI1
aF0.93434343434343436
aF0
aI1
aI1
aI1
aI1
aF0.90151515151515149
aF0.95714285714285707
aI1
aI1
aI1
aI1
aI1
aF0.9375
aF0.89215686274509798
aF0.84261363636363629
aF0.38053097345132747
aF0.4297385620915033
aF0.46561168594035302
aF0.4510582010582011
aI1
aF0.41169354838709676
aF0
aF0.37584231805929924
aF0.49630541871921185
aF0
aI1
aI1
aF0.36570945945945948
aI1
aI1
aI1
aI1
aF0
aF0.47515257192676541
aF0.78260869565217395
aI1
aI1
aF0.93125000000000002
aI1
aI1
aI1
aI1
aI1
aF0.7635135135135136
aF0.99295774647887325
aF0.99342105263157887
aF0.99295774647887325
aF0.59374999999999989
aF0.9893617021276595
aF0.85810810810810811
aF0.48666666666666664
aI1
aI1
aI1
aI1
aI1
aI1
aI1
aI1
aI1
aF0
aI1
aF0.52027027027027029
aI1
aI1
aF0.033317800559179871
aF0.40650109569028486
aF0.40056610664718773
aF0.36815193571950333
aI1
aI1
aF0.49013157894736842
aF0.60032894736842113
aI1
aI1
aI1
aF0.45270270270270269
aI1
aI1
aI1
aF0.38527777777777772
aF0.52105263157894732
aF0.35061919504643962
aF0.38879751461988299
aF0.40268640350877188
aF0.39583333333333337
aF0.71936274509803921
aI1
aI1
aI1
aF0
aF0
aF0.99342105263157887
aF0.99350649350649345
aI1
aI1
aF0.76282051282051277
aF0
aI1
aI1
aI1
aI1
aI1
aI1
aI1
aF0.43421052631578949
aF0.4509320175438597
aI1
aI1
aI1
aI1
aI1
aF0.30181936322287195
aI1
aI1
aI1
aI1
aI1
aI1
aF0.56666666666666676
aF0.82236842105263153
aF0.99305555555555558
aF0.99358974358974361
aF0.74675324675324672
aF0.99324324324324331
aF0.99367088607594944
aF0.80921052631578938
aF0.99305555555555558
aF0.97368421052631571
aI1
aI1
aF0.39630681818181823
aF0.60805422647527918
aF0.7828947368421052
aF0.78000000000000003
aI1
aF0.99358974358974361
aF0.99375000000000002
aF0.057603686635944694
aF0.94078947368421051
aF0.99358974358974361
aF0.9933333333333334
aF0.99342105263157887
aF0.9933333333333334
aF0.91774891774891765
aF0.37250101999184004
aF0.50722222222222224
aF0.54777777777777781
aF0.53824013157894735
aF0.57164634146341464
aF0.54087089381207043
aF0.52330391616105898
aF0.53413848631239935
aF0.20535714285714288
aF0.71599264705882348
aF0.98717948717948711
aF0.98051948051948046
aF0.91666666666666663
aF0.90765765765765771
aF0.97357723577235777
aF0.28472222222222221
aF0.82023809523809521
aF0.99358974358974361
aF0.70779220779220775
aF0.99358974358974361
aF0.99350649350649345
aF0.79113924050632911
aF0.88333333333333341
aF0.49679487179487181
aF0.98717948717948711
aF0.99350649350649345
aF0.64957264957264949
aF0.99122807017543857
aI1
aI1
aF0.99358974358974361
aF0.97435897435897434
aF0.99367088607594944
aF0.99358974358974361
aF0.98684210526315785
aI1
aF0.93939393939393934
aF0.5122582096266306
aF0.15928515928515927
aF0.49675324675324672
aF0.99367088607594944
aF0.94736842105263153
aF0.9933333333333334
aF0.5
aF0.81289308176100628
aF0.99350649350649345
aF0.99019607843137247
aI1
aF0.99350649350649345
aI1
aF0.953125
aF0.99358974358974361
aF0.78205128205128205
aF0.47350427350427354
aF0.90384615384615385
aF0.42424242424242431
aF0.45554577464788737
aF0.51038748832866487
aF0.33116361298617808
aF0.52114825581395341
aF0.42091619484347947
aF0.42815870570107861
aF0.61764705882352944
aF0.18589743589743588
aF0.10841613091759206
aF0.58451417004048578
aF0.45141211445559276
aF0.73776455026455035
aF0.43311987819622944
aF0.59699307712215322
aF0
aF0.61973720418271872
aF0.39040492957746481
aF0.76161616161616152
aF0.39950607025804369
aF0.47224308792253045
aF0.400124410496774
aF0.40381588232101179
aF0.47564102564102562
aF0.49679487179487181
aF0
aF0.86006289308176109
aF0.96428571428571419
aF0.75526315789473686
aF0.33148148148148143
aF0.99367088607594944
aF0.33114035087719296
aF0.49683544303797472
aF0.64373088685015301
aF0.24837662337662336
aF0.66645569620253164
aF0.98076923076923073
aF0.98076923076923073
aF0.98051948051948046
aF0.98076923076923073
aF0.75420168067226889
aF0.97435897435897434
aF0.98717948717948711
aF0.98717948717948711
aF0.14660493827160492
aF0.38586862575626624
aF0.90000000000000002
aF0.48376623376623384
aF0.96341463414634143
aF0.97499999999999998
aF0.93678160919540232
aF0.98101265822784811
aF0.98630136986301375
aF0.9821428571428571
aF0.77100840336134446
aF0.98101265822784811
aF0.98101265822784811
aF0.98101265822784811
aF0.73557692307692302
aF0.98000000000000009
aF0.98192771084337349
aF0.79201680672268904
aF0.98076923076923073
aF0.95783132530120474
aF0.95783132530120474
aF0.98101265822784811
aF0.97887323943661975
aF0.96813186813186813
aF0.96972477064220175
aF0.96511627906976749
aF0.98734177215189878
aF0.83270911360798994
aF0.98124999999999996
aF0.8125
aF0.98823529411764699
aF0.65317139001349522
aF0.95208333333333328
aF0.92291666666666661
aF0.97530864197530864
aF0.98466257668711654
aI1
aI1
aF0.30000000000000004
aI1
aI1
aI1
aI1
aI1
aI1
aF0.8280701754385964
aF0.94166666666666665
aF0.89516129032258063
aF0.95568181818181819
aF0.96764705882352942
aF0.99382716049382713
aF0.99358974358974361
aF0.9831460674157303
aF0.99390243902439024
aF0.98780487804878048
aF0.90340909090909094
aF0.95299145299145294
aF0.98765432098765438
aI1
aF0
aF0.98780487804878048
aF0.98780487804878048
aF0.61356707317073167
aF0.90740740740740744
aF0.375
aF0.96153846153846156
aF0.875
aF0
aF0.953656462585034
aF0.98717948717948711
aF0.95806451612903221
aI1
aF0.71428571428571419
aI1
aF0.098457675753228127
aF0.97093023255813959
aF0.99473684210526314
aF0.95833333333333326
aF0.94999999999999996
aF0.94241573033707871
aI1
aF0.70731707317073167
aF0.82222222222222219
aF0.54487179487179482
aI1
aF0
aF0.80686274509803924
aF0.65853658536585358
aI1
aF0.98235294117647054
aF0.95360824742268036
asssS'history_length'
p397
I8
sg368
(lp398
I1
aI1
aF0
aF0
aI1
aI1
aF0
aF0
aI1
aF0
aF0.75
aF0.1111111111111111
aF0
aF0
aI1
aI1
aF0
aF1
aI1
aI1
aI1
aI1
aF0
aF0
aI1
aI1
aI1
aI1
aI1
aF0
aF0
aF0.090909090909090912
aF0.59999999999999998
aF0.43137254901960786
aF0.52830188679245282
aF0.59183673469387754
aI1
aF0.59999999999999998
aF0
aF0.50943396226415094
aF1
aF0
aI1
aI1
aF0.625
aI1
aI1
aI1
aI1
aF1
aF0.29032258064516131
aF0.93333333333333335
aI1
aI1
aF1
aI1
aI1
aI1
aI1
aI1
aF0
aF1
aF1
aF1
aF1
aF1
aF0
aF1
aI1
aI1
aI1
aI1
aI1
aI1
aI1
aI1
aI1
aF1
aI1
aF1
aI1
aI1
aF0.97297297297297303
aF0.70270270270270274
aF0.70270270270270274
aF0.70270270270270274
aI1
aI1
aF0.5
aF0.75
aI1
aI1
aI1
aF1
aI1
aI1
aI1
aF0.68055555555555558
aF0.73333333333333328
aF0.61764705882352944
aF0.58333333333333337
aF0.61111111111111116
aF0.65277777777777779
aF0.25
aI1
aI1
aI1
aF1
aF1
aF1
aF1
aI1
aI1
aF1
aF0
aI1
aI1
aI1
aI1
aI1
aI1
aI1
aF0.70833333333333337
aF0.73611111111111116
aI1
aI1
aI1
aI1
aI1
aF0.66666666666666663
aI1
aI1
aI1
aI1
aI1
aI1
aF0
aF1
aF1
aF1
aF1
aF1
aF1
aF0.5
aF0
aF0
aI1
aI1
aF0.65000000000000002
aF0.81818181818181823
aF0.96969696969696972
aF0.96969696969696972
aI1
aF0
aF0
aF0.5714285714285714
aF0
aF0
aF0
aF0
aF0
aF0.16666666666666666
aF0.65116279069767447
aF0.60416666666666663
aF0.72916666666666663
aF0.83333333333333337
aF0.80769230769230771
aF0.78431372549019607
aF0.7142857142857143
aF0.53333333333333333
aF1
aF0.88235294117647056
aF1
aF1
aF0.5
aF0.33333333333333331
aF0.66666666666666663
aF1
aF0.066666666666666666
aF0
aF0
aF0
aF0
aF0.33333333333333331
aF1
aF0.5
aF0.5
aF0
aF0.33333333333333331
aF0
aI1
aI1
aF0
aF0
aF0
aF0
aF0
aI1
aF0.5
aF0.75438596491228072
aF0.33333333333333331
aF0
aF0
aF0.5
aF0
aF1
aF0
aF1
aF1
aI1
aF1
aI1
aF0
aF1
aF1
aF0.73333333333333328
aF1
aF0.70833333333333337
aF0.74647887323943662
aF0.6029411764705882
aF0.4098360655737705
aF0.90000000000000002
aF0.6013289036544851
aF0.68181818181818177
aF0.6875
aF0.35555555555555557
aF0.31034482758620691
aF0.53846153846153844
aF0.55072463768115942
aF1
aF0.58394160583941601
aF0.70833333333333337
aF0
aF0.88043478260869568
aF0.5625
aF0.72727272727272729
aF0.52873563218390807
aF0.53658536585365857
aF0.55516014234875444
aF0.6179775280898876
aF0.80000000000000004
aF0.5
aF1
aF1
aF1
aF0.80000000000000004
aF1
aF1
aF1
aF1
aF0.33333333333333331
aF1
aF0.40000000000000002
aF1
aF1
aF1
aF1
aF0.42857142857142855
aF1
aF1
aF1
aF0.94999999999999996
aF0.7415730337078652
aF0.66666666666666663
aF0.5
aF1
aF1
aF1
aF1
aF1
aF1
aF0.42857142857142855
aF1
aF1
aF1
aF1
aF1
aF1
aF0.2857142857142857
aF1
aF1
aF1
aF1
aF1
aF1
aF1
aF1
aF1
aF0.66666666666666663
aF1
aF1
aF1
aF0.63157894736842102
aF1
aF0.66666666666666663
aF1
aF1
aI1
aI1
aF0.80000000000000004
aI1
aI1
aI1
aI1
aI1
aI1
aF1
aF0.875
aF0.25
aF1
aF0.75
aF1
aF1
aF1
aF1
aF0.5
aF0.875
aF1
aF1
aI1
aF0
aF1
aF1
aF0.8125
aF1
aF0.59756097560975607
aF1
aF1
aF0
aF0.8571428571428571
aF1
aF0.80000000000000004
aI1
aF1
aI1
aF0.6470588235294118
aF1
aF1
aF0.75
aF1
aF0.875
aI1
aF0
aF0.8571428571428571
aF0
aI1
aF0
aF0.83333333333333337
aF0.66666666666666663
aI1
aF1
aF1
asg370
(lp399
F0.056106090545654297
aF0.00016093254089355469
aF0.002841949462890625
aF0.0064120292663574219
aF0.0041520595550537109
aF0.0030820369720458984
aF0.0025770664215087891
aF0.0032529830932617188
aF0.0056560039520263672
aF0.00506591796875
aF0.0062830448150634766
aF0.0095889568328857422
aF0.0030779838562011719
aF0.0029659271240234375
aF0.1760261058807373
aF0.0026800632476806641
aF0.0032899379730224609
aF0.00356292724609375
aF0.0028150081634521484
aF0.0065429210662841797
aF0.0029428005218505859
aF0.0029580593109130859
aF0.0033428668975830078
aF0.0040869712829589844
aF0.0078291893005371094
aF0.0036561489105224609
aF0.0035951137542724609
aF0.0038189888000488281
aF0.0037829875946044922
aF0.0087459087371826172
aF0.0048761367797851562
aF0.017434120178222656
aF0.012259006500244141
aF0.0064280033111572266
aF0.01181793212890625
aF0.0059521198272705078
aF0.00013279914855957031
aF0.013417959213256836
aF0.0041089057922363281
aF0.017510175704956055
aF0.022985935211181641
aF0.0029301643371582031
aF0.00012803077697753906
aF0.0072739124298095703
aF0.01499485969543457
aF0.0089020729064941406
aF0.0070791244506835938
aF0.0042700767517089844
aF0.0074899196624755859
aF0.016520977020263672
aF0.0079579353332519531
aF0.0074849128723144531
aF0.0039029121398925781
aF0.0070841312408447266
aF0.013895988464355469
aF0.0071721076965332031
aF0.0071699619293212891
aF0.0070080757141113281
aF0.0071148872375488281
aF0.016302108764648438
aF0.00716400146484375
aF0.0075640678405761719
aF0.0081171989440917969
aF0.0077569484710693359
aF0.0090780258178710938
aF0.0050320625305175781
aF0.0070948600769042969
aF0.0079770088195800781
aF0.0070250034332275391
aF0.012730836868286133
aF0.0072290897369384766
aF0.0070440769195556641
aF0.0080778598785400391
aF0.0070629119873046875
aF0.012894868850708008
aF0.0069370269775390625
aF0.0069859027862548828
aF0.0035669803619384766
aF0.00027012825012207031
aF0.013795137405395508
aF0.0075051784515380859
aF0.0074610710144042969
aF0.016079902648925781
aF0.0055949687957763672
aF0.01165008544921875
aF0.0055379867553710938
aF0.0072460174560546875
aF0.0073690414428710938
aF0.0080130100250244141
aF0.014219999313354492
aF0.0071849822998046875
aF0.0071139335632324219
aF0.0070149898529052734
aF0.0078718662261962891
aF0.013082027435302734
aF0.0073940753936767578
aF0.0073449611663818359
aF0.0078599452972412109
aF0.0021250247955322266
aF0.012469053268432617
aF0.0087399482727050781
aF0.0089709758758544922
aF0.0087399482727050781
aF0.012959957122802734
aF0.015316009521484375
aF0.007678985595703125
aF0.0076601505279541016
aF0.0086598396301269531
aF0.0097808837890625
aF0.016386032104492188
aF0.0098159313201904297
aF0.0069861412048339844
aF0.0001430511474609375
aF0.009490966796875
aF0.014417886734008789
aF0.0092828273773193359
aF0.0097291469573974609
aF0.0076780319213867188
aF0.0071649551391601562
aF0.015403985977172852
aF0.0086619853973388672
aF0.0075330734252929688
aF0.0084929466247558594
aF0.0083191394805908203
aF0.015121936798095703
aF0.007781982421875
aF0.0074338912963867188
aF0.0068938732147216797
aF0.0074748992919921875
aF0.015887022018432617
aF0.0026659965515136719
aF0.0049619674682617188
aF0.00012707710266113281
aF0.0074419975280761719
aF0.01491093635559082
aF0.0073699951171875
aF0.0072619915008544922
aF0.0082399845123291016
aF0.00786590576171875
aF0.015487194061279297
aF0.0084960460662841797
aF0.0081319808959960938
aF0.0086112022399902344
aF0.0082449913024902344
aF0.014304876327514648
aF0.0073950290679931641
aF0.00053906440734863281
aF0.00012302398681640625
aF0.0048661231994628906
aF0.016190052032470703
aF0.0085370540618896484
aF0.0082530975341796875
aF0.00013279914855957031
aF0.0076088905334472656
aF0.015097856521606445
aF0.0034821033477783203
aF0.0074632167816162109
aF0.0081670284271240234
aF0.0072991847991943359
aF0.014858007431030273
aF0.0073499679565429688
aF0.0083239078521728516
aF0.0061960220336914062
aF0.0085790157318115234
aF0.017194986343383789
aF0.0086050033569335938
aF0.0088798999786376953
aF0.0087618827819824219
aF0.0080139636993408203
aF0.015218019485473633
aF0.0031869411468505859
aF0.010426998138427734
aF0.0087599754333496094
aF0.0084989070892333984
aF0.016093015670776367
aF0.0080931186676025391
aF0.0091528892517089844
aF0.0026450157165527344
aF0.0092871189117431641
aF0.015043973922729492
aF0.0076148509979248047
aF0.0085899829864501953
aF0.0075869560241699219
aF0.0086929798126220703
aF0.011017084121704102
aF0.0086610317230224609
aF0.0086228847503662109
aF0.0075368881225585938
aF0.0087101459503173828
aF0.013035058975219727
aF0.00020813941955566406
aF0.0028879642486572266
aF0.0076508522033691406
aF0.0076169967651367188
aF0.014868021011352539
aF0.0080389976501464844
aF0.0075018405914306641
aF0.00023198127746582031
aF0.0036470890045166016
aF0.016073942184448242
aF0.0086770057678222656
aF0.0079250335693359375
aF0.0089879035949707031
aF0.0092279911041259766
aF0.015395164489746094
aF0.0036101341247558594
aF0.010254859924316406
aF0.0084359645843505859
aF0.0059139728546142578
aF0.0074889659881591797
aF0.010221958160400391
aF0.00016498565673828125
aF0.003170013427734375
aF0.0084209442138671875
aF0.015846967697143555
aF0.0085279941558837891
aF0.0086431503295898438
aF0.0083940029144287109
aF0.0091829299926757812
aF0.021384954452514648
aF0.017611980438232422
aF0.0091419219970703125
aF0.044108867645263672
aF0.014400959014892578
aF0.013509988784790039
aF0.0088009834289550781
aF0.0066518783569335938
aF0.004238128662109375
aF0.0088410377502441406
aF0.016093969345092773
aF0.020540952682495117
aF0.049489974975585938
aF0.00036406517028808594
aF0.022465944290161133
aF0.016103982925415039
aF0.0049779415130615234
aF0.029051065444946289
aF0.048074960708618164
aF0.047841072082519531
aF0.032891988754272461
aF0.0086939334869384766
aF0.0088200569152832031
aF0.0030019283294677734
aF0.011955022811889648
aF0.016562938690185547
aF0.0084350109100341797
aF0.010016918182373047
aF0.0089838504791259766
aF0.0085389614105224609
aF0.016194820404052734
aF0.01278996467590332
aF0.0084679126739501953
aF0.0086460113525390625
aF0.0087838172912597656
aF0.016083955764770508
aF0.0082700252532958984
aF0.0085420608520507812
aF0.0037050247192382812
aF0.0088610649108886719
aF0.015756130218505859
aF0.0089800357818603516
aF0.0088918209075927734
aF0.014279842376708984
aF0.0017449855804443359
aF0.012509822845458984
aF0.0093219280242919922
aF0.0089728832244873047
aF0.0098199844360351562
aF0.0087308883666992188
aF0.015266180038452148
aF0.0092701911926269531
aF0.0037050247192382812
aF0.0086028575897216797
aF0.0086529254913330078
aF0.015794992446899414
aF0.0085320472717285156
aF0.0081160068511962891
aF0.0089528560638427734
aF0.0038721561431884766
aF0.015932083129882812
aF0.00969696044921875
aF0.0091080665588378906
aF0.0087199211120605469
aF0.0077030658721923828
aF0.017965078353881836
aF0.012441158294677734
aF0.0099489688873291016
aF0.0085198879241943359
aF0.0097398757934570312
aF0.016274929046630859
aF0.0081720352172851562
aF0.0094168186187744141
aF0.0043020248413085938
aF0.0093860626220703125
aF0.016088962554931641
aF0.0091359615325927734
aF0.018446922302246094
aF0.0073120594024658203
aF0.0077130794525146484
aF0.011620044708251953
aF0.0030548572540283203
aF0.0080621242523193359
aF0.0081970691680908203
aF0.0080378055572509766
aF0.015312910079956055
aF0.0079300403594970703
aF0.010857105255126953
aF0.0099918842315673828
aF0.010365009307861328
aF0.017113924026489258
aF0.0095450878143310547
aF0.0089230537414550781
aF0.010627031326293945
aF0.010501861572265625
aF0.016704082489013672
aF0.0091941356658935547
aF0.0097939968109130859
aF0.0087211132049560547
aF0.0088880062103271484
aF0.014176845550537109
aF0.00025701522827148438
aF0.0089781284332275391
aF0.0088131427764892578
aF0.0090260505676269531
aF0.017533063888549805
aF0.009220123291015625
aF0.0030498504638671875
aF0.0061290264129638672
aF0.00013399124145507812
aF0.026479005813598633
aF0.0087029933929443359
aF0.010430097579956055
aF0.0079300403594970703
aF0.00090813636779785156
aF0.0073599815368652344
aF0.0099451541900634766
aF0.010763883590698242
aF0.011113166809082031
aF0.0096809864044189453
aF0.017541885375976562
aF0.010471105575561523
aF0.0073668956756591797
aF0.007968902587890625
aF0.010409116744995117
aF0.015429019927978516
aF0.00050091743469238281
aF0.00012612342834472656
aF0.0096850395202636719
aF0.0092608928680419922
aF0.0072960853576660156
aF0.0094609260559082031
aF0.010925054550170898
asS'step'
p400
(lp401
I1
aI2
aI3
aI4
aI5
aI6
aI7
aI8
aI9
aI10
aI11
aI12
aI13
aI14
aI15
aI16
aI17
aI18
aI19
aI20
aI21
aI22
aI23
aI24
aI25
aI26
aI27
aI28
aI29
aI30
aI31
aI32
aI33
aI34
aI35
aI36
aI37
aI38
aI39
aI40
aI41
aI42
aI43
aI44
aI45
aI46
aI47
aI48
aI49
aI50
aI51
aI52
aI53
aI54
aI55
aI56
aI57
aI58
aI59
aI60
aI61
aI62
aI63
aI64
aI65
aI66
aI67
aI68
aI69
aI70
aI71
aI72
aI73
aI74
aI75
aI76
aI77
aI78
aI79
aI80
aI81
aI82
aI83
aI84
aI85
aI86
aI87
aI88
aI89
aI90
aI91
aI92
aI93
aI94
aI95
aI96
aI97
aI98
aI99
aI100
aI101
aI102
aI103
aI104
aI105
aI106
aI107
aI108
aI109
aI110
aI111
aI112
aI113
aI114
aI115
aI116
aI117
aI118
aI119
aI120
aI121
aI122
aI123
aI124
aI125
aI126
aI127
aI128
aI129
aI130
aI131
aI132
aI133
aI134
aI135
aI136
aI137
aI138
aI139
aI140
aI141
aI142
aI143
aI144
aI145
aI146
aI147
aI148
aI149
aI150
aI151
aI152
aI153
aI154
aI155
aI156
aI157
aI158
aI159
aI160
aI161
aI162
aI163
aI164
aI165
aI166
aI167
aI168
aI169
aI170
aI171
aI172
aI173
aI174
aI175
aI176
aI177
aI178
aI179
aI180
aI181
aI182
aI183
aI184
aI185
aI186
aI187
aI188
aI189
aI190
aI191
aI192
aI193
aI194
aI195
aI196
aI197
aI198
aI199
aI200
aI201
aI202
aI203
aI204
aI205
aI206
aI207
aI208
aI209
aI210
aI211
aI212
aI213
aI214
aI215
aI216
aI217
aI218
aI219
aI220
aI221
aI222
aI223
aI224
aI225
aI226
aI227
aI228
aI229
aI230
aI231
aI232
aI233
aI234
aI235
aI236
aI237
aI238
aI239
aI240
aI241
aI242
aI243
aI244
aI245
aI246
aI247
aI248
aI249
aI250
aI251
aI252
aI253
aI254
aI255
aI256
aI257
aI258
aI259
aI260
aI261
aI262
aI263
aI264
aI265
aI266
aI267
aI268
aI269
aI270
aI271
aI272
aI273
aI274
aI275
aI276
aI277
aI278
aI279
aI280
aI281
aI282
aI283
aI284
aI285
aI286
aI287
aI288
aI289
aI290
aI291
aI292
aI293
aI294
aI295
aI296
aI297
aI298
aI299
aI300
aI301
aI302
aI303
aI304
aI305
aI306
aI307
aI308
aI309
aI310
aI311
aI312
aI313
aI314
aI315
aI316
aI317
aI318
aI319
aI320
aI321
aI322
aI323
aI324
aI325
aI326
aI327
aI328
aI329
aI330
aI331
aI332
aI333
aI334
aI335
aI336
aI337
aI338
aI339
aI340
aI341
aI342
aI343
aI344
aI345
aI346
aI347
aI348
aI349
aI350
aI351
aI352
asS'agent'
p402
S'mlpclassifier'
p403
sS'sched_time'
p404
F0.5
sS'scenarios'
p405
(lp406
S'2016-01-13T09:17:00'
p407
aS'2016-01-13T10:39:00'
p408
aS'2016-01-14T12:15:00'
p409
aS'2016-01-15T09:50:00'
p410
aS'2016-01-16T00:22:00'
p411
aS'2016-01-17T00:21:00'
p412
aS'2016-01-18T00:19:00'
p413
aS'2016-01-19T00:15:00'
p414
aS'2016-01-20T00:13:00'
p415
aS'2016-01-21T00:12:00'
p416
aS'2016-01-22T00:11:00'
p417
aS'2016-01-23T00:09:00'
p418
aS'2016-01-24T00:09:00'
p419
aS'2016-01-25T00:08:00'
p420
aS'2016-01-26T00:07:00'
p421
aS'2016-01-27T00:06:00'
p422
aS'2016-01-28T00:04:00'
p423
aS'2016-01-29T00:04:00'
p424
aS'2016-01-30T00:04:00'
p425
aS'2016-01-31T00:02:00'
p426
aS'2016-02-01T00:01:00'
p427
aS'2016-02-02T00:01:00'
p428
aS'2016-02-02T23:57:00'
p429
aS'2016-02-03T23:56:00'
p430
aS'2016-02-04T23:55:00'
p431
aS'2016-02-05T23:53:00'
p432
aS'2016-02-06T23:53:00'
p433
aS'2016-02-07T23:52:00'
p434
aS'2016-02-08T23:50:00'
p435
aS'2016-02-09T23:48:00'
p436
aS'2016-02-10T23:47:00'
p437
aS'2016-02-11T23:46:00'
p438
aS'2016-02-12T23:42:00'
p439
aS'2016-02-13T23:41:00'
p440
aS'2016-02-14T23:41:00'
p441
aS'2016-02-15T23:41:00'
p442
aS'2016-02-16T00:49:00'
p443
aS'2016-02-17T08:55:00'
p444
aS'2016-02-18T02:45:00'
p445
aS'2016-02-19T02:45:00'
p446
aS'2016-02-20T02:18:00'
p447
aS'2016-02-21T02:18:00'
p448
aS'2016-02-22T00:29:00'
p449
aS'2016-02-23T07:56:00'
p450
aS'2016-02-24T03:00:00'
p451
aS'2016-02-25T02:18:00'
p452
aS'2016-02-26T02:15:00'
p453
aS'2016-02-27T02:14:00'
p454
aS'2016-02-28T02:14:00'
p455
aS'2016-02-29T02:14:00'
p456
aS'2016-03-01T00:43:00'
p457
aS'2016-03-02T00:16:00'
p458
aS'2016-03-03T00:15:00'
p459
aS'2016-03-04T00:10:00'
p460
aS'2016-03-05T00:09:00'
p461
aS'2016-03-06T00:05:00'
p462
aS'2016-03-06T23:59:00'
p463
aS'2016-03-07T23:59:00'
p464
aS'2016-03-08T23:54:00'
p465
aS'2016-03-09T23:54:00'
p466
aS'2016-03-10T21:55:00'
p467
aS'2016-03-11T21:52:00'
p468
aS'2016-03-12T21:51:00'
p469
aS'2016-03-13T21:51:00'
p470
aS'2016-03-14T21:51:00'
p471
aS'2016-03-15T19:52:00'
p472
aS'2016-03-16T19:52:00'
p473
aS'2016-03-17T19:52:00'
p474
aS'2016-03-18T19:51:00'
p475
aS'2016-03-19T19:51:00'
p476
aS'2016-03-20T19:50:00'
p477
aS'2016-03-21T19:50:00'
p478
aS'2016-03-22T19:49:00'
p479
aS'2016-03-23T19:48:00'
p480
aS'2016-03-24T19:48:00'
p481
aS'2016-03-25T19:47:00'
p482
aS'2016-03-26T19:46:00'
p483
aS'2016-03-27T19:45:00'
p484
aS'2016-03-28T18:02:00'
p485
aS'2016-03-29T18:02:00'
p486
aS'2016-03-30T18:02:00'
p487
aS'2016-03-31T18:02:00'
p488
aS'2016-04-01T18:02:00'
p489
aS'2016-04-02T18:01:00'
p490
aS'2016-04-03T18:00:00'
p491
aS'2016-04-04T18:00:00'
p492
aS'2016-04-05T18:00:00'
p493
aS'2016-04-06T18:00:00'
p494
aS'2016-04-07T18:00:00'
p495
aS'2016-04-08T18:00:00'
p496
aS'2016-04-09T18:00:00'
p497
aS'2016-04-10T18:00:00'
p498
aS'2016-04-11T18:00:00'
p499
aS'2016-04-12T18:00:00'
p500
aS'2016-04-13T18:00:00'
p501
aS'2016-04-14T18:00:00'
p502
aS'2016-04-15T18:00:00'
p503
aS'2016-04-16T18:00:00'
p504
aS'2016-04-16T18:40:00'
p505
aS'2016-04-17T18:39:00'
p506
aS'2016-04-17T20:14:00'
p507
aS'2016-04-18T19:54:00'
p508
aS'2016-04-19T18:42:00'
p509
aS'2016-04-20T18:41:00'
p510
aS'2016-04-21T18:41:00'
p511
aS'2016-04-22T18:41:00'
p512
aS'2016-04-23T18:40:00'
p513
aS'2016-04-24T18:40:00'
p514
aS'2016-04-25T18:39:00'
p515
aS'2016-04-26T18:39:00'
p516
aS'2016-04-27T18:39:00'
p517
aS'2016-04-28T18:39:00'
p518
aS'2016-04-28T20:39:00'
p519
aS'2016-05-03T18:00:00'
p520
aS'2016-05-04T18:00:00'
p521
aS'2016-05-05T18:00:00'
p522
aS'2016-05-06T18:00:00'
p523
aS'2016-05-07T18:00:00'
p524
aS'2016-05-08T18:00:00'
p525
aS'2016-05-09T18:00:00'
p526
aS'2016-05-10T18:00:00'
p527
aS'2016-05-11T18:00:00'
p528
aS'2016-05-12T18:00:00'
p529
aS'2016-05-13T18:00:00'
p530
aS'2016-05-14T18:00:00'
p531
aS'2016-05-15T18:00:00'
p532
aS'2016-05-15T20:39:00'
p533
aS'2016-05-16T20:38:00'
p534
aS'2016-05-17T20:38:00'
p535
aS'2016-05-18T20:38:00'
p536
aS'2016-05-19T19:05:00'
p537
aS'2016-05-20T18:59:00'
p538
aS'2016-05-20T20:47:00'
p539
aS'2016-05-22T18:01:00'
p540
aS'2016-05-23T18:01:00'
p541
aS'2016-05-24T18:00:00'
p542
aS'2016-05-25T18:00:00'
p543
aS'2016-05-25T20:45:00'
p544
aS'2016-05-26T20:40:00'
p545
aS'2016-05-27T20:40:00'
p546
aS'2016-05-28T20:40:00'
p547
aS'2016-05-29T20:40:00'
p548
aS'2016-05-30T20:40:00'
p549
aS'2016-05-31T20:39:00'
p550
aS'2016-06-01T20:36:00'
p551
aS'2016-06-02T20:36:00'
p552
aS'2016-06-03T20:36:00'
p553
aS'2016-06-03T20:41:00'
p554
aS'2016-06-07T18:01:00'
p555
aS'2016-06-08T18:00:00'
p556
aS'2016-06-09T18:00:00'
p557
aS'2016-06-10T18:00:00'
p558
aS'2016-06-10T20:23:00'
p559
aS'2016-06-12T18:09:00'
p560
aS'2016-06-13T18:09:00'
p561
aS'2016-06-14T18:08:00'
p562
aS'2016-06-15T18:08:00'
p563
aS'2016-06-16T18:08:00'
p564
aS'2016-06-17T18:07:00'
p565
aS'2016-06-18T18:05:00'
p566
aS'2016-06-19T18:05:00'
p567
aS'2016-06-20T18:05:00'
p568
aS'2016-06-21T18:00:00'
p569
aS'2016-06-22T18:00:00'
p570
aS'2016-06-22T19:10:00'
p571
aS'2016-06-23T19:10:00'
p572
aS'2016-06-24T19:10:00'
p573
aS'2016-06-25T19:09:00'
p574
aS'2016-06-26T19:08:00'
p575
aS'2016-06-27T19:07:00'
p576
aS'2016-06-28T18:56:00'
p577
aS'2016-06-29T18:54:00'
p578
aS'2016-06-30T18:54:00'
p579
aS'2016-07-01T18:52:00'
p580
aS'2016-07-02T18:51:00'
p581
aS'2016-07-03T18:51:00'
p582
aS'2016-07-04T18:51:00'
p583
aS'2016-07-05T18:51:00'
p584
aS'2016-07-06T18:49:00'
p585
aS'2016-07-07T18:49:00'
p586
aS'2016-07-08T18:49:00'
p587
aS'2016-07-09T18:48:00'
p588
aS'2016-07-10T18:48:00'
p589
aS'2016-07-11T18:47:00'
p590
aS'2016-07-12T18:47:00'
p591
aS'2016-07-13T18:46:00'
p592
aS'2016-07-14T18:46:00'
p593
aS'2016-07-15T18:45:00'
p594
aS'2016-07-16T18:42:00'
p595
aS'2016-07-17T18:42:00'
p596
aS'2016-07-17T20:44:00'
p597
aS'2016-07-19T18:00:00'
p598
aS'2016-07-20T18:00:00'
p599
aS'2016-07-21T18:00:00'
p600
aS'2016-07-22T18:00:00'
p601
aS'2016-07-23T18:00:00'
p602
aS'2016-07-24T18:00:00'
p603
aS'2016-07-24T20:44:00'
p604
aS'2016-07-26T18:00:00'
p605
aS'2016-07-27T18:00:00'
p606
aS'2016-07-28T18:00:00'
p607
aS'2016-07-29T18:00:00'
p608
aS'2016-07-30T18:00:00'
p609
aS'2016-07-31T18:00:00'
p610
aS'2016-07-31T20:43:00'
p611
aS'2016-08-01T20:43:00'
p612
aS'2016-08-02T19:07:00'
p613
aS'2016-08-03T19:00:00'
p614
aS'2016-08-04T18:57:00'
p615
aS'2016-08-04T20:46:00'
p616
aS'2016-08-07T18:00:00'
p617
aS'2016-08-07T20:43:00'
p618
aS'2016-08-09T18:01:00'
p619
aS'2016-08-10T18:01:00'
p620
aS'2016-08-11T18:01:00'
p621
aS'2016-08-12T18:01:00'
p622
aS'2016-08-13T18:01:00'
p623
aS'2016-08-14T18:01:00'
p624
aS'2016-08-15T18:01:00'
p625
aS'2016-08-16T18:01:00'
p626
aS'2016-08-17T18:00:00'
p627
aS'2016-08-18T11:33:00'
p628
aS'2016-08-19T11:03:00'
p629
aS'2016-08-20T11:03:00'
p630
aS'2016-08-20T18:43:00'
p631
aS'2016-08-21T18:43:00'
p632
aS'2016-08-22T18:43:00'
p633
aS'2016-08-23T18:29:00'
p634
aS'2016-08-24T18:08:00'
p635
aS'2016-08-25T18:08:00'
p636
aS'2016-08-26T18:01:00'
p637
aS'2016-08-27T18:01:00'
p638
aS'2016-08-27T23:57:00'
p639
aS'2016-08-29T13:04:00'
p640
aS'2016-08-30T08:00:00'
p641
aS'2016-08-30T19:08:00'
p642
aS'2016-08-31T19:06:00'
p643
aS'2016-09-01T19:04:00'
p644
aS'2016-09-02T19:02:00'
p645
aS'2016-09-03T17:50:00'
p646
aS'2016-09-04T14:30:00'
p647
aS'2016-09-04T22:37:00'
p648
aS'2016-09-05T22:32:00'
p649
aS'2016-09-06T19:09:00'
p650
aS'2016-09-07T19:00:00'
p651
aS'2016-09-08T18:59:00'
p652
aS'2016-09-09T18:58:00'
p653
aS'2016-09-10T18:58:00'
p654
aS'2016-09-11T18:58:00'
p655
aS'2016-09-12T18:58:00'
p656
aS'2016-09-13T18:53:00'
p657
aS'2016-09-14T18:50:00'
p658
aS'2016-09-15T18:50:00'
p659
aS'2016-09-16T18:50:00'
p660
aS'2016-09-17T18:49:00'
p661
aS'2016-09-18T18:49:00'
p662
aS'2016-09-19T18:48:00'
p663
aS'2016-09-20T18:48:00'
p664
aS'2016-09-21T18:48:00'
p665
aS'2016-09-22T18:48:00'
p666
aS'2016-09-23T18:48:00'
p667
aS'2016-09-24T18:48:00'
p668
aS'2016-09-25T18:48:00'
p669
aS'2016-09-26T18:28:00'
p670
aS'2016-09-27T18:27:00'
p671
aS'2016-09-28T18:27:00'
p672
aS'2016-09-29T18:25:00'
p673
aS'2016-09-30T18:24:00'
p674
aS'2016-10-01T18:24:00'
p675
aS'2016-10-02T18:24:00'
p676
aS'2016-10-03T18:23:00'
p677
aS'2016-10-04T18:23:00'
p678
aS'2016-10-05T18:23:00'
p679
aS'2016-10-06T18:23:00'
p680
aS'2016-10-07T18:23:00'
p681
aS'2016-10-08T18:23:00'
p682
aS'2016-10-09T18:21:00'
p683
aS'2016-10-10T18:21:00'
p684
aS'2016-10-11T18:20:00'
p685
aS'2016-10-12T18:20:00'
p686
aS'2016-10-13T18:18:00'
p687
aS'2016-10-14T18:17:00'
p688
aS'2016-10-15T18:17:00'
p689
aS'2016-10-16T18:17:00'
p690
aS'2016-10-17T18:16:00'
p691
aS'2016-10-18T18:15:00'
p692
aS'2016-10-19T18:15:00'
p693
aS'2016-10-20T18:15:00'
p694
aS'2016-10-21T18:15:00'
p695
aS'2016-10-22T18:15:00'
p696
aS'2016-10-23T18:15:00'
p697
aS'2016-10-24T18:13:00'
p698
aS'2016-10-25T18:11:00'
p699
aS'2016-10-26T15:51:00'
p700
aS'2016-10-27T11:55:00'
p701
aS'2016-10-27T20:43:00'
p702
aS'2016-10-28T20:43:00'
p703
aS'2016-10-29T20:43:00'
p704
aS'2016-10-30T20:43:00'
p705
aS'2016-10-31T20:43:00'
p706
aS'2016-11-01T19:08:00'
p707
aS'2016-11-02T19:01:00'
p708
aS'2016-11-03T19:00:00'
p709
aS'2016-11-04T18:58:00'
p710
aS'2016-11-05T18:58:00'
p711
aS'2016-11-06T18:56:00'
p712
aS'2016-11-07T18:55:00'
p713
aS'2016-11-08T18:54:00'
p714
aS'2016-11-09T18:53:00'
p715
aS'2016-11-10T18:53:00'
p716
aS'2016-11-11T18:53:00'
p717
aS'2016-11-12T18:53:00'
p718
aS'2016-11-13T18:53:00'
p719
aS'2016-11-14T18:51:00'
p720
aS'2016-11-15T18:49:00'
p721
aS'2016-11-16T18:49:00'
p722
aS'2016-11-17T18:49:00'
p723
aS'2016-11-18T18:47:00'
p724
aS'2016-11-19T18:44:00'
p725
aS'2016-11-20T18:44:00'
p726
aS'2016-11-20T21:21:00'
p727
aS'2016-11-22T18:00:00'
p728
aS'2016-11-23T18:00:00'
p729
aS'2016-11-24T18:00:00'
p730
aS'2016-11-25T18:00:00'
p731
aS'2016-11-25T21:16:00'
p732
aS'2016-11-26T19:27:00'
p733
aS'2016-11-27T19:27:00'
p734
aS'2016-11-27T21:24:00'
p735
aS'2016-11-29T07:43:00'
p736
aS'2016-11-29T20:46:00'
p737
aS'2016-11-30T20:45:00'
p738
aS'2016-12-01T20:44:00'
p739
aS'2016-12-02T20:44:00'
p740
aS'2016-12-03T16:20:00'
p741
aS'2016-12-05T18:00:00'
p742
aS'2016-12-06T18:00:00'
p743
aS'2016-12-07T18:00:00'
p744
aS'2016-12-08T09:13:00'
p745
aS'2016-12-09T08:59:00'
p746
aS'2016-12-10T08:18:00'
p747
aS'2016-12-10T20:47:00'
p748
aS'2016-12-11T20:47:00'
p749
aS'2016-12-12T20:47:00'
p750
aS'2016-12-13T20:46:00'
p751
aS'2016-12-14T20:46:00'
p752
aS'2016-12-14T20:49:00'
p753
aS'2016-12-16T13:47:00'
p754
aS'2016-12-17T10:35:00'
p755
aS'2016-12-17T20:46:00'
p756
aS'2016-12-20T07:04:00'
p757
aS'2016-12-20T20:45:00'
p758
asg373
(lp759
I0
aI0
aI0
aI0
aI0
aI0
aI0
aI0
aI0
aI0
aI3
aI1
aI0
aI0
aI0
aI0
aI0
aI1
aI0
aI0
aI0
aI0
aI0
aI0
aI0
aI0
aI0
aI0
aI0
aI0
aI0
aI1
aI3
aI22
aI28
aI29
aI0
aI6
aI0
aI27
aI2
aI0
aI0
aI0
aI5
aI0
aI0
aI0
aI0
aI1
aI9
aI28
aI0
aI0
aI1
aI0
aI0
aI0
aI0
aI0
aI0
aI1
aI1
aI1
aI3
aI1
aI0
aI1
aI0
aI0
aI0
aI0
aI0
aI0
aI0
aI0
aI0
aI1
aI0
aI1
aI0
aI0
aI72
aI52
aI52
aI52
aI0
aI0
aI1
aI6
aI0
aI0
aI0
aI1
aI0
aI0
aI0
aI49
aI11
aI21
aI42
aI44
aI47
aI1
aI0
aI0
aI0
aI1
aI1
aI1
aI1
aI0
aI0
aI2
aI0
aI0
aI0
aI0
aI0
aI0
aI0
aI0
aI51
aI53
aI0
aI0
aI0
aI0
aI0
aI38
aI0
aI0
aI0
aI0
aI0
aI0
aI0
aI2
aI1
aI1
aI2
aI1
aI1
aI1
aI0
aI0
aI0
aI0
aI26
aI27
aI32
aI32
aI0
aI0
aI0
aI4
aI0
aI0
aI0
aI0
aI0
aI1
aI28
aI29
aI35
aI40
aI42
aI40
aI35
aI24
aI2
aI15
aI2
aI1
aI1
aI1
aI2
aI3
aI1
aI0
aI0
aI0
aI0
aI1
aI1
aI1
aI1
aI0
aI1
aI0
aI0
aI0
aI0
aI0
aI0
aI0
aI0
aI0
aI1
aI43
aI11
aI0
aI0
aI1
aI0
aI1
aI0
aI1
aI1
aI0
aI1
aI0
aI0
aI1
aI2
aI11
aI15
aI51
aI53
aI41
aI50
aI72
aI181
aI75
aI11
aI16
aI9
aI14
aI38
aI21
aI80
aI136
aI0
aI81
aI9
aI8
aI92
aI154
aI156
aI55
aI4
aI1
aI1
aI6
aI4
aI4
aI3
aI1
aI3
aI2
aI3
aI4
aI4
aI3
aI3
aI3
aI3
aI3
aI2
aI2
aI2
aI19
aI66
aI2
aI11
aI6
aI4
aI11
aI3
aI2
aI3
aI3
aI3
aI3
aI3
aI4
aI3
aI3
aI2
aI3
aI7
aI7
aI3
aI3
aI5
aI5
aI6
aI2
aI6
aI3
aI3
aI2
aI12
aI3
aI2
aI2
aI2
aI0
aI0
aI4
aI0
aI0
aI0
aI0
aI0
aI0
aI9
aI7
aI1
aI5
aI3
aI1
aI1
aI3
aI1
aI1
aI7
aI6
aI2
aI0
aI0
aI2
aI2
aI13
aI15
aI49
aI2
aI14
aI0
aI6
aI2
aI4
aI0
aI4
aI0
aI22
aI5
aI1
aI3
aI9
aI7
aI0
aI0
aI6
aI0
aI0
aI0
aI5
aI2
aI0
aI2
aI4
asS'result'
p760
(lp761
(lp762
I0
aI0
aI0
aI1
aI1
aI1
a(lp763
aa(lp764
I0
aI0
aI0
aI1
aI1
aI1
a(lp765
aa(lp766
I0
aI1
aI0
aF0
aF0
aI123
a(lp767
aa(lp768
I0
aI1
aI0
aF0
aF0
aI123
a(lp769
aa(lp770
I0
aI0
aI0
aI1
aI1
aI1
a(lp771
aa(lp772
I0
aI0
aI0
aI1
aI1
aI1
a(lp773
aa(lp774
I0
aI1
aI0
aF0
aF0
aI123
a(lp775
aa(lp776
I0
aI1
aI0
aF0
aF0
aI123
a(lp777
aa(lp778
I0
aI0
aI0
aI1
aI1
aI1
a(lp779
aa(lp780
I0
aI4
aI0
aF0
aF0
aI123
a(lp781
aa(lp782
I3
aI1
aI31
aF0.34957627118644063
aF0.75
aI123
a(lp783
I31
aI32
aI33
aaa(lp784
I1
aI8
aI53
aF0.046296296296296287
aF0.1111111111111111
aI123
a(lp785
I53
aaa(lp786
I0
aI1
aI0
aF0
aF0
aI123
a(lp787
aa(lp788
I0
aI1
aI0
aF0
aF0
aI123
a(lp789
aa(lp790
I0
aI0
aI0
aI1
aI1
aI1
a(lp791
aa(lp792
I0
aI0
aI0
aI1
aI1
aI1
a(lp793
aa(lp794
I0
aI3
aI0
aF0
aF0
aI123
a(lp795
aa(lp796
I1
aI0
aI8
aF0.77272727272727271
aF1
aI123
a(lp797
I8
aaa(lp798
I0
aI0
aI0
aI1
aI1
aI1
a(lp799
aa(lp800
I0
aI0
aI0
aI1
aI1
aI1
a(lp801
aa(lp802
I0
aI0
aI0
aI1
aI1
aI1
a(lp803
aa(lp804
I0
aI0
aI0
aI1
aI1
aI1
a(lp805
aa(lp806
I0
aI4
aI0
aF0
aF0
aI123
a(lp807
aa(lp808
I0
aI1
aI0
aF0
aF0
aI123
a(lp809
aa(lp810
I0
aI0
aI0
aI1
aI1
aI1
a(lp811
aa(lp812
I0
aI0
aI0
aI1
aI1
aI1
a(lp813
aa(lp814
I0
aI0
aI0
aI1
aI1
aI1
a(lp815
aa(lp816
I0
aI0
aI0
aI1
aI1
aI1
a(lp817
aa(lp818
I0
aI0
aI0
aI1
aI1
aI1
a(lp819
aa(lp820
I0
aI1
aI0
aF0
aF0
aI123
a(lp821
aa(lp822
I0
aI5
aI0
aF0
aF0
aI123
a(lp823
aa(lp824
I1
aI10
aI47
aF0.064488636363636373
aF0.090909090909090912
aI123
a(lp825
I47
aaa(lp826
I3
aI2
aI2
aF0.57964601769911506
aF0.59999999999999998
aI123
a(lp827
I2
aI4
aI7
aaa(lp828
I22
aI29
aI1
aF0.31013071895424837
aF0.43137254901960786
aI123
a(lp829
I1
aI2
aI8
aI9
aI10
aI11
aI12
aI13
aI14
aI15
aI17
aI19
aI20
aI21
aI22
aI23
aI25
aI26
aI27
aI28
aI29
aI30
aaa(lp830
I28
aI25
aI1
aF0.37766281192939744
aF0.52830188679245282
aI123
a(lp831
I1
aI2
aI3
aI8
aI9
aI10
aI11
aI12
aI13
aI14
aI15
aI16
aI17
aI18
aI19
aI20
aI21
aI22
aI23
aI24
aI25
aI26
aI27
aI28
aI29
aI31
aI32
aI33
aaa(lp832
I29
aI20
aI1
aF0.43216175359032499
aF0.59183673469387754
aI123
a(lp833
I1
aI2
aI3
aI4
aI5
aI6
aI7
aI8
aI9
aI10
aI11
aI12
aI13
aI14
aI15
aI16
aI17
aI18
aI19
aI20
aI21
aI22
aI23
aI24
aI25
aI26
aI27
aI29
aI30
aaa(lp834
I0
aI0
aI0
aI1
aI1
aI1
a(lp835
aa(lp836
I6
aI4
aI8
aF0.44838709677419353
aF0.59999999999999998
aI123
a(lp837
I8
aI24
aI31
aI39
aI43
aI46
aaa(lp838
I0
aI1
aI0
aF0
aF0
aI123
a(lp839
aa(lp840
I27
aI26
aI1
aF0.33667452830188682
aF0.50943396226415094
aI123
a(lp841
I1
aI2
aI3
aI4
aI5
aI33
aI36
aI37
aI38
aI39
aI40
aI41
aI42
aI43
aI44
aI45
aI46
aI47
aI48
aI51
aI52
aI53
aI54
aI55
aI59
aI60
aI61
aaa(lp842
I2
aI0
aI27
aF0.69458128078817738
aF1
aI123
a(lp843
I27
aI98
aaa(lp844
I0
aI1
aI0
aF0
aF0
aI123
a(lp845
aa(lp846
I0
aI0
aI0
aI1
aI1
aI1
a(lp847
aa(lp848
I0
aI0
aI0
aI1
aI1
aI1
a(lp849
aa(lp850
I5
aI3
aI19
aF0.4045608108108108
aF0.625
aI123
a(lp851
I19
aI21
aI25
aI32
aI36
aaa(lp852
I0
aI0
aI0
aI1
aI1
aI1
a(lp853
aa(lp854
I0
aI0
aI0
aI1
aI1
aI1
a(lp855
aa(lp856
I0
aI0
aI0
aI1
aI1
aI1
a(lp857
aa(lp858
I0
aI0
aI0
aI1
aI1
aI1
a(lp859
aa(lp860
I1
aI0
aI36
aF0.65533980582524265
aF1
aI123
a(lp861
I36
aaa(lp862
I9
aI22
aI4
aF0.17240627724498694
aF0.29032258064516131
aI123
a(lp863
I4
aI5
aI35
aI36
aI37
aI38
aI39
aI40
aI41
aaa(lp864
I28
aI2
aI1
aF0.72705314009661837
aF0.93333333333333335
aI123
a(lp865
I1
aI2
aI4
aI5
aI6
aI7
aI8
aI9
aI10
aI11
aI12
aI13
aI14
aI15
aI16
aI17
aI18
aI19
aI20
aI22
aI23
aI24
aI25
aI26
aI27
aI28
aI29
aI30
aaa(lp866
I0
aI0
aI0
aI1
aI1
aI1
a(lp867
aa(lp868
I0
aI0
aI0
aI1
aI1
aI1
a(lp869
aa(lp870
I1
aI0
aI28
aF0.65625
aF1
aI123
a(lp871
I28
aaa(lp872
I0
aI0
aI0
aI1
aI1
aI1
a(lp873
aa(lp874
I0
aI0
aI0
aI1
aI1
aI1
a(lp875
aa(lp876
I0
aI0
aI0
aI1
aI1
aI1
a(lp877
aa(lp878
I0
aI0
aI0
aI1
aI1
aI1
a(lp879
aa(lp880
I0
aI0
aI0
aI1
aI1
aI1
a(lp881
aa(lp882
I0
aI1
aI0
aF0
aF0
aI123
a(lp883
aa(lp884
I1
aI0
aI1
aF0.99295774647887325
aF1
aI123
a(lp885
I1
aaa(lp886
I1
aI0
aI1
aF0.99342105263157887
aF1
aI123
a(lp887
I1
aaa(lp888
I1
aI0
aI1
aF0.99295774647887325
aF1
aI123
a(lp889
I1
aaa(lp890
I3
aI0
aI1
aF0.734375
aF1
aI123
a(lp891
I1
aI12
aI14
aaa(lp892
I1
aI0
aI3
aF0.94680851063829785
aF1
aI123
a(lp893
I3
aaa(lp894
I0
aI2
aI0
aF0
aF0
aI123
a(lp895
aa(lp896
I1
aI0
aI9
aF0.88666666666666671
aF1
aI123
a(lp897
I9
aaa(lp898
I0
aI0
aI0
aI1
aI1
aI1
a(lp899
aa(lp900
I0
aI0
aI0
aI1
aI1
aI1
a(lp901
aa(lp902
I0
aI0
aI0
aI1
aI1
aI1
a(lp903
aa(lp904
I0
aI0
aI0
aI1
aI1
aI1
a(lp905
aa(lp906
I0
aI0
aI0
aI1
aI1
aI1
a(lp907
aa(lp908
I0
aI0
aI0
aI1
aI1
aI1
a(lp909
aa(lp910
I0
aI0
aI0
aI1
aI1
aI1
a(lp911
aa(lp912
I0
aI0
aI0
aI1
aI1
aI1
a(lp913
aa(lp914
I0
aI0
aI0
aI1
aI1
aI1
a(lp915
aa(lp916
I1
aI0
aI1
aF0.98571428571428565
aF1
aI123
a(lp917
I1
aaa(lp918
I0
aI0
aI0
aI1
aI1
aI1
a(lp919
aa(lp920
I1
aI0
aI18
aF0.7635135135135136
aF1
aI123
a(lp921
I18
aaa(lp922
I0
aI0
aI0
aI1
aI1
aI1
a(lp923
aa(lp924
I0
aI0
aI0
aI1
aI1
aI1
a(lp925
aa(lp926
I72
aI2
aI1
aF0.72404473438956196
aF0.97297297297297303
aI123
a(lp927
I1
aI3
aI4
aI5
aI6
aI7
aI8
aI9
aI10
aI11
aI12
aI13
aI14
aI15
aI16
aI17
aI18
aI19
aI20
aI21
aI22
aI23
aI24
aI25
aI26
aI27
aI28
aI29
aI30
aI31
aI32
aI33
aI34
aI35
aI36
aI37
aI38
aI39
aI40
aI41
aI42
aI43
aI44
aI45
aI46
aI47
aI48
aI49
aI50
aI51
aI52
aI53
aI54
aI55
aI56
aI57
aI58
aI59
aI60
aI61
aI62
aI63
aI64
aI65
aI66
aI67
aI68
aI69
aI70
aI71
aI72
aI81
aaa(lp928
I52
aI22
aI1
aF0.45580715850986125
aF0.70270270270270274
aI123
a(lp929
I1
aI2
aI3
aI4
aI5
aI6
aI7
aI8
aI9
aI10
aI11
aI12
aI13
aI14
aI15
aI16
aI17
aI18
aI19
aI20
aI21
aI22
aI23
aI24
aI25
aI26
aI27
aI28
aI29
aI30
aI31
aI32
aI33
aI34
aI35
aI36
aI37
aI38
aI39
aI40
aI41
aI42
aI43
aI44
aI45
aI46
aI47
aI48
aI49
aI50
aI51
aI52
aaa(lp930
I52
aI22
aI1
aF0.45580715850986125
aF0.70270270270270274
aI123
a(lp931
I1
aI2
aI3
aI4
aI5
aI6
aI7
aI8
aI9
aI10
aI11
aI12
aI13
aI14
aI15
aI16
aI17
aI18
aI19
aI20
aI21
aI22
aI23
aI24
aI25
aI26
aI27
aI28
aI29
aI30
aI31
aI32
aI33
aI34
aI35
aI36
aI37
aI38
aI39
aI40
aI41
aI42
aI43
aI44
aI45
aI46
aI47
aI48
aI49
aI50
aI51
aI52
aaa(lp932
I52
aI22
aI1
aF0.45580715850986125
aF0.70270270270270274
aI123
a(lp933
I1
aI2
aI3
aI4
aI5
aI6
aI7
aI8
aI9
aI10
aI11
aI12
aI13
aI14
aI15
aI16
aI17
aI18
aI19
aI20
aI21
aI22
aI23
aI24
aI25
aI26
aI27
aI28
aI29
aI30
aI31
aI32
aI33
aI34
aI35
aI36
aI37
aI38
aI39
aI40
aI41
aI42
aI43
aI44
aI45
aI46
aI47
aI48
aI49
aI50
aI51
aI52
aaa(lp934
I0
aI0
aI0
aI1
aI1
aI1
a(lp935
aa(lp936
I0
aI0
aI0
aI1
aI1
aI1
a(lp937
aa(lp938
I1
aI1
aI52
aF0.16118421052631579
aF0.5
aI123
a(lp939
I52
aaa(lp940
I6
aI2
aI7
aF0.54276315789473684
aF0.75
aI123
a(lp941
I7
aI8
aI21
aI25
aI29
aI39
aaa(lp942
I0
aI0
aI0
aI1
aI1
aI1
a(lp943
aa(lp944
I0
aI0
aI0
aI1
aI1
aI1
a(lp945
aa(lp946
I0
aI0
aI0
aI1
aI1
aI1
a(lp947
aa(lp948
I1
aI0
aI50
aF0.33108108108108109
aF1
aI123
a(lp949
I50
aaa(lp950
I0
aI0
aI0
aI1
aI1
aI1
a(lp951
aa(lp952
I0
aI0
aI0
aI1
aI1
aI1
a(lp953
aa(lp954
I0
aI0
aI0
aI1
aI1
aI1
a(lp955
aa(lp956
I49
aI23
aI1
aF0.45768518518518525
aF0.68055555555555558
aI123
a(lp957
I1
aI2
aI3
aI4
aI5
aI6
aI7
aI8
aI9
aI10
aI11
aI12
aI13
aI14
aI15
aI16
aI17
aI18
aI19
aI20
aI21
aI22
aI23
aI24
aI25
aI26
aI27
aI28
aI29
aI30
aI31
aI32
aI33
aI34
aI35
aI36
aI37
aI38
aI39
aI40
aI41
aI42
aI43
aI44
aI45
aI46
aI48
aI49
aI50
aaa(lp958
I11
aI4
aI1
aF0.52105263157894732
aF0.73333333333333328
aI123
a(lp959
I1
aI2
aI3
aI4
aI5
aI6
aI7
aI8
aI9
aI10
aI11
aaa(lp960
I21
aI13
aI2
aF0.42492260061919507
aF0.61764705882352944
aI123
a(lp961
I2
aI7
aI8
aI9
aI10
aI11
aI13
aI15
aI16
aI17
aI18
aI19
aI20
aI22
aI24
aI25
aI27
aI28
aI29
aI30
aI34
aaa(lp962
I42
aI30
aI1
aF0.42214912280701755
aF0.58333333333333337
aI123
a(lp963
I1
aI2
aI3
aI4
aI5
aI6
aI7
aI8
aI9
aI10
aI11
aI12
aI13
aI14
aI15
aI16
aI17
aI18
aI19
aI20
aI21
aI22
aI23
aI24
aI25
aI26
aI27
aI28
aI29
aI30
aI31
aI32
aI33
aI34
aI35
aI36
aI37
aI38
aI39
aI40
aI41
aI42
aaa(lp964
I44
aI28
aI1
aF0.43402777777777779
aF0.61111111111111116
aI123
a(lp965
I1
aI2
aI3
aI4
aI5
aI6
aI7
aI8
aI9
aI10
aI11
aI12
aI13
aI14
aI15
aI16
aI17
aI18
aI19
aI20
aI21
aI22
aI23
aI24
aI25
aI26
aI27
aI28
aI29
aI30
aI31
aI32
aI33
aI34
aI35
aI36
aI37
aI38
aI39
aI40
aI41
aI42
aI43
aI45
aaa(lp966
I47
aI25
aI1
aF0.4509320175438597
aF0.65277777777777779
aI123
a(lp967
I1
aI2
aI3
aI4
aI5
aI6
aI7
aI8
aI9
aI10
aI11
aI12
aI13
aI14
aI15
aI16
aI17
aI18
aI19
aI20
aI21
aI22
aI23
aI24
aI25
aI26
aI27
aI28
aI29
aI30
aI31
aI32
aI33
aI34
aI35
aI36
aI37
aI38
aI39
aI40
aI41
aI42
aI43
aI44
aI45
aI46
aI47
aaa(lp968
I1
aI3
aI4
aF0.24142156862745098
aF0.25
aI123
a(lp969
I4
aaa(lp970
I0
aI0
aI0
aI1
aI1
aI1
a(lp971
aa(lp972
I0
aI0
aI0
aI1
aI1
aI1
a(lp973
aa(lp974
I0
aI0
aI0
aI1
aI1
aI1
a(lp975
aa(lp976
I1
aI0
aI13
aF0.83333333333333337
aF1
aI123
a(lp977
I13
aaa(lp978
I1
aI0
aI5
aF0.94078947368421051
aF1
aI123
a(lp979
I5
aaa(lp980
I1
aI0
aI1
aF0.99342105263157887
aF1
aI123
a(lp981
I1
aaa(lp982
I1
aI0
aI1
aF0.99350649350649345
aF1
aI123
a(lp983
I1
aaa(lp984
I0
aI0
aI0
aI1
aI1
aI1
a(lp985
aa(lp986
I0
aI0
aI0
aI1
aI1
aI1
a(lp987
aa(lp988
I2
aI0
aI1
aF0.87179487179487181
aF1
aI123
a(lp989
I1
aI20
aaa(lp990
I0
aI1
aI0
aF0
aF0
aI123
a(lp991
aa(lp992
I0
aI0
aI0
aI1
aI1
aI1
a(lp993
aa(lp994
I0
aI0
aI0
aI1
aI1
aI1
a(lp995
aa(lp996
I0
aI0
aI0
aI1
aI1
aI1
a(lp997
aa(lp998
I0
aI0
aI0
aI1
aI1
aI1
a(lp999
aa(lp1000
I0
aI0
aI0
aI1
aI1
aI1
a(lp1001
aa(lp1002
I0
aI0
aI0
aI1
aI1
aI1
a(lp1003
aa(lp1004
I0
aI0
aI0
aI1
aI1
aI1
a(lp1005
aa(lp1006
I51
aI21
aI2
aF0.45458698830409361
aF0.70833333333333337
aI123
a(lp1007
I2
aI3
aI4
aI5
aI6
aI7
aI8
aI9
aI10
aI11
aI12
aI13
aI14
aI15
aI17
aI18
aI19
aI20
aI21
aI22
aI23
aI24
aI25
aI26
aI27
aI28
aI29
aI30
aI31
aI32
aI33
aI34
aI35
aI36
aI37
aI38
aI39
aI40
aI41
aI42
aI43
aI44
aI45
aI46
aI47
aI48
aI49
aI50
aI51
aI52
aI53
aaa(lp1008
I53
aI19
aI1
aF0.47944078947368429
aF0.73611111111111116
aI123
a(lp1009
I1
aI2
aI3
aI4
aI5
aI6
aI7
aI8
aI9
aI10
aI11
aI12
aI13
aI14
aI15
aI16
aI17
aI18
aI19
aI20
aI21
aI22
aI23
aI24
aI25
aI26
aI27
aI28
aI29
aI30
aI31
aI32
aI33
aI34
aI35
aI36
aI37
aI38
aI39
aI40
aI41
aI42
aI43
aI44
aI45
aI46
aI47
aI48
aI49
aI50
aI51
aI52
aI53
aaa(lp1010
I0
aI0
aI0
aI1
aI1
aI1
a(lp1011
aa(lp1012
I0
aI0
aI0
aI1
aI1
aI1
a(lp1013
aa(lp1014
I0
aI0
aI0
aI1
aI1
aI1
a(lp1015
aa(lp1016
I0
aI0
aI0
aI1
aI1
aI1
a(lp1017
aa(lp1018
I0
aI0
aI0
aI1
aI1
aI1
a(lp1019
aa(lp1020
I38
aI19
aI5
aF0.41910331384015587
aF0.66666666666666663
aI123
a(lp1021
I5
aI7
aI8
aI9
aI11
aI14
aI15
aI16
aI17
aI18
aI19
aI20
aI21
aI24
aI25
aI26
aI27
aI28
aI29
aI30
aI31
aI32
aI35
aI36
aI38
aI39
aI41
aI44
aI45
aI46
aI47
aI48
aI49
aI50
aI51
aI52
aI54
aI55
aaa(lp1022
I0
aI0
aI0
aI1
aI1
aI1
a(lp1023
aa(lp1024
I0
aI0
aI0
aI1
aI1
aI1
a(lp1025
aa(lp1026
I0
aI0
aI0
aI1
aI1
aI1
a(lp1027
aa(lp1028
I0
aI0
aI0
aI1
aI1
aI1
a(lp1029
aa(lp1030
I0
aI0
aI0
aI1
aI1
aI1
a(lp1031
aa(lp1032
I0
aI0
aI0
aI1
aI1
aI1
a(lp1033
aa(lp1034
I0
aI1
aI0
aF0
aF0
aI123
a(lp1035
aa(lp1036
I2
aI0
aI1
aF0.88157894736842102
aF1
aI123
a(lp1037
I1
aI18
aaa(lp1038
I1
aI0
aI1
aF0.99305555555555558
aF1
aI123
a(lp1039
I1
aaa(lp1040
I1
aI0
aI1
aF0.99358974358974361
aF1
aI123
a(lp1041
I1
aaa(lp1042
I2
aI0
aI1
aF0.87662337662337653
aF1
aI123
a(lp1043
I1
aI19
aaa(lp1044
I1
aI0
aI2
aF0.97972972972972983
aF1
aI123
a(lp1045
I2
aaa(lp1046
I1
aI0
aI2
aF0.98101265822784811
aF1
aI123
a(lp1047
I2
aaa(lp1048
I1
aI1
aI44
aF0.21381578947368421
aF0.5
aI123
a(lp1049
I44
aaa(lp1050
I0
aI1
aI0
aF0
aF0
aI123
a(lp1051
aa(lp1052
I0
aI2
aI0
aF0
aF0
aI123
a(lp1053
aa(lp1054
I0
aI0
aI0
aI1
aI1
aI1
a(lp1055
aa(lp1056
I0
aI0
aI0
aI1
aI1
aI1
a(lp1057
aa(lp1058
I26
aI14
aI2
aF0.43863636363636366
aF0.65000000000000002
aI123
a(lp1059
I2
aI3
aI4
aI5
aI6
aI7
aI8
aI9
aI10
aI11
aI12
aI13
aI14
aI15
aI16
aI17
aI18
aI19
aI21
aI22
aI23
aI24
aI25
aI26
aI27
aI28
aaa(lp1060
I27
aI6
aI1
aF0.64852472089314206
aF0.81818181818181823
aI123
a(lp1061
I1
aI2
aI3
aI4
aI5
aI6
aI7
aI8
aI9
aI10
aI11
aI12
aI13
aI14
aI15
aI16
aI17
aI18
aI19
aI20
aI22
aI23
aI31
aI34
aI35
aI37
aI47
aaa(lp1062
I32
aI1
aI1
aF0.76555023923444976
aF0.96969696969696972
aI123
a(lp1063
I1
aI2
aI3
aI4
aI5
aI6
aI7
aI8
aI9
aI10
aI11
aI12
aI13
aI14
aI15
aI16
aI17
aI18
aI19
aI20
aI21
aI22
aI23
aI24
aI25
aI26
aI27
aI28
aI29
aI30
aI31
aI32
aaa(lp1064
I32
aI1
aI1
aF0.76282828282828286
aF0.96969696969696972
aI123
a(lp1065
I1
aI2
aI3
aI4
aI5
aI6
aI7
aI8
aI9
aI10
aI11
aI12
aI13
aI14
aI15
aI16
aI17
aI18
aI19
aI20
aI21
aI22
aI23
aI24
aI25
aI26
aI27
aI28
aI29
aI30
aI31
aI32
aaa(lp1066
I0
aI0
aI0
aI1
aI1
aI1
a(lp1067
aa(lp1068
I0
aI1
aI0
aF0
aF0
aI123
a(lp1069
aa(lp1070
I0
aI1
aI0
aF0
aF0
aI123
a(lp1071
aa(lp1072
I4
aI3
aI10
aF0.3686635944700461
aF0.5714285714285714
aI123
a(lp1073
I10
aI11
aI12
aI13
aaa(lp1074
I0
aI2
aI0
aF0
aF0
aI123
a(lp1075
aa(lp1076
I0
aI1
aI0
aF0
aF0
aI123
a(lp1077
aa(lp1078
I0
aI1
aI0
aF0
aF0
aI123
a(lp1079
aa(lp1080
I0
aI1
aI0
aF0
aF0
aI123
a(lp1081
aa(lp1082
I0
aI1
aI0
aF0
aF0
aI123
a(lp1083
aa(lp1084
I1
aI5
aI48
aF0.063852813852813842
aF0.16666666666666666
aI123
a(lp1085
I48
aaa(lp1086
I28
aI15
aI2
aF0.45614035087719301
aF0.65116279069767447
aI123
a(lp1087
I2
aI3
aI4
aI5
aI6
aI7
aI8
aI9
aI10
aI11
aI12
aI13
aI14
aI15
aI16
aI17
aI19
aI20
aI24
aI26
aI27
aI28
aI30
aI31
aI32
aI33
aI34
aI36
aaa(lp1088
I29
aI19
aI1
aF0.47069444444444442
aF0.60416666666666663
aI123
a(lp1089
I1
aI2
aI3
aI4
aI5
aI6
aI7
aI8
aI9
aI12
aI13
aI15
aI16
aI17
aI18
aI19
aI20
aI21
aI22
aI23
aI24
aI25
aI26
aI27
aI28
aI29
aI30
aI31
aI34
aaa(lp1090
I35
aI13
aI1
aF0.55902777777777779
aF0.72916666666666663
aI123
a(lp1091
I1
aI2
aI3
aI4
aI5
aI6
aI7
aI8
aI9
aI10
aI11
aI12
aI13
aI14
aI15
aI16
aI17
aI18
aI19
aI20
aI21
aI22
aI23
aI24
aI25
aI26
aI27
aI28
aI29
aI30
aI31
aI32
aI33
aI34
aI35
aaa(lp1092
I40
aI8
aI1
aF0.61403508771929827
aF0.83333333333333337
aI123
a(lp1093
I1
aI2
aI3
aI4
aI5
aI6
aI7
aI8
aI9
aI10
aI11
aI12
aI13
aI14
aI15
aI16
aI17
aI18
aI19
aI20
aI21
aI22
aI23
aI24
aI25
aI26
aI27
aI28
aI29
aI30
aI31
aI32
aI33
aI34
aI35
aI36
aI37
aI38
aI39
aI40
aaa(lp1094
I42
aI10
aI1
aF0.60084427767354587
aF0.80769230769230771
aI123
a(lp1095
I1
aI2
aI3
aI4
aI5
aI6
aI7
aI8
aI9
aI10
aI11
aI12
aI13
aI14
aI15
aI16
aI17
aI18
aI19
aI20
aI21
aI22
aI23
aI24
aI25
aI26
aI27
aI28
aI29
aI30
aI31
aI32
aI33
aI34
aI35
aI36
aI37
aI38
aI39
aI40
aI41
aI42
aaa(lp1096
I40
aI11
aI1
aF0.5805958747135217
aF0.78431372549019607
aI123
a(lp1097
I1
aI2
aI3
aI4
aI5
aI6
aI7
aI8
aI9
aI10
aI11
aI12
aI13
aI14
aI15
aI16
aI17
aI18
aI19
aI20
aI21
aI22
aI23
aI24
aI25
aI26
aI27
aI28
aI29
aI30
aI31
aI32
aI33
aI34
aI35
aI36
aI37
aI38
aI39
aI40
aaa(lp1098
I35
aI14
aI3
aF0.52606177606177618
aF0.7142857142857143
aI123
a(lp1099
I3
aI4
aI5
aI6
aI7
aI8
aI9
aI10
aI11
aI12
aI13
aI14
aI15
aI16
aI17
aI18
aI19
aI20
aI21
aI22
aI23
aI24
aI25
aI26
aI27
aI28
aI29
aI30
aI31
aI32
aI33
aI34
aI35
aI36
aI37
aaa(lp1100
I24
aI21
aI1
aF0.38132045088566829
aF0.53333333333333333
aI123
a(lp1101
I1
aI3
aI4
aI5
aI6
aI7
aI8
aI9
aI10
aI11
aI12
aI13
aI14
aI15
aI16
aI17
aI38
aI39
aI40
aI41
aI42
aI43
aI44
aI46
aaa(lp1102
I2
aI0
aI1
aF0.94642857142857151
aF1
aI123
a(lp1103
I1
aI3
aaa(lp1104
I15
aI2
aI9
aF0.71415441176470584
aF0.88235294117647056
aI123
a(lp1105
I9
aI10
aI12
aI13
aI14
aI15
aI16
aI17
aI18
aI19
aI20
aI21
aI22
aI23
aI53
aaa(lp1106
I2
aI0
aI34
aF0.5641025641025641
aF1
aI123
a(lp1107
I34
aI35
aaa(lp1108
I1
aI0
aI31
aF0.60389610389610382
aF1
aI123
a(lp1109
I31
aaa(lp1110
I1
aI1
aI29
aF0.31730769230769229
aF0.5
aI123
a(lp1111
I29
aaa(lp1112
I1
aI2
aI30
aF0.20045045045045043
aF0.33333333333333331
aI123
a(lp1113
I30
aaa(lp1114
I2
aI1
aI30
aF0.42276422764227645
aF0.66666666666666663
aI123
a(lp1115
I30
aI31
aaa(lp1116
I3
aI0
aI4
aF0.68750000000000011
aF1
aI123
a(lp1117
I4
aI5
aI15
aaa(lp1118
I1
aI14
aI4
aF0.063888888888888884
aF0.066666666666666666
aI123
a(lp1119
I4
aaa(lp1120
I0
aI1
aI0
aF0
aF0
aI123
a(lp1121
aa(lp1122
I0
aI2
aI0
aF0
aF0
aI123
a(lp1123
aa(lp1124
I0
aI1
aI0
aF0
aF0
aI123
a(lp1125
aa(lp1126
I0
aI1
aI0
aF0
aF0
aI123
a(lp1127
aa(lp1128
I1
aI2
aI38
aF0.17510548523206748
aF0.33333333333333331
aI123
a(lp1129
I38
aaa(lp1130
I1
aI0
aI20
aF0.35000000000000003
aF1
aI123
a(lp1131
I20
aaa(lp1132
I1
aI1
aI19
aF0.38141025641025639
aF0.5
aI123
a(lp1133
I19
aaa(lp1134
I1
aI1
aI1
aF0.49679487179487181
aF0.5
aI123
a(lp1135
I1
aaa(lp1136
I0
aI1
aI0
aF0
aF0
aI123
a(lp1137
aa(lp1138
I1
aI2
aI2
aF0.32692307692307687
aF0.33333333333333331
aI123
a(lp1139
I2
aaa(lp1140
I0
aI1
aI0
aF0
aF0
aI123
a(lp1141
aa(lp1142
I0
aI0
aI0
aI1
aI1
aI1
a(lp1143
aa(lp1144
I0
aI0
aI0
aI1
aI1
aI1
a(lp1145
aa(lp1146
I0
aI1
aI0
aF0
aF0
aI123
a(lp1147
aa(lp1148
I0
aI2
aI0
aF0
aF0
aI123
a(lp1149
aa(lp1150
I0
aI1
aI0
aF0
aF0
aI123
a(lp1151
aa(lp1152
I0
aI1
aI0
aF0
aF0
aI123
a(lp1153
aa(lp1154
I0
aI2
aI0
aF0
aF0
aI123
a(lp1155
aa(lp1156
I0
aI0
aI0
aI1
aI1
aI1
a(lp1157
aa(lp1158
I1
aI1
aI16
aF0.26515151515151514
aF0.5
aI123
a(lp1159
I16
aaa(lp1160
I43
aI14
aI5
aF0.48819163292847506
aF0.75438596491228072
aI123
a(lp1161
I5
aI6
aI7
aI8
aI9
aI10
aI11
aI12
aI13
aI14
aI15
aI16
aI17
aI18
aI19
aI20
aI21
aI22
aI23
aI24
aI25
aI26
aI27
aI28
aI29
aI31
aI33
aI35
aI37
aI39
aI40
aI41
aI42
aI43
aI44
aI45
aI46
aI48
aI49
aI50
aI51
aI52
aI54
aaa(lp1162
I11
aI22
aI3
aF0.22513597513597511
aF0.33333333333333331
aI123
a(lp1163
I3
aI4
aI6
aI8
aI26
aI29
aI35
aI36
aI44
aI45
aI48
aaa(lp1164
I0
aI2
aI0
aF0
aF0
aI123
a(lp1165
aa(lp1166
I0
aI1
aI0
aF0
aF0
aI123
a(lp1167
aa(lp1168
I1
aI1
aI44
aF0.21381578947368421
aF0.5
aI123
a(lp1169
I44
aaa(lp1170
I0
aI1
aI0
aF0
aF0
aI123
a(lp1171
aa(lp1172
I1
aI0
aI2
aF0.95454545454545459
aF1
aI123
a(lp1173
I2
aaa(lp1174
I0
aI3
aI0
aF0
aF0
aI123
a(lp1175
aa(lp1176
I1
aI0
aI8
aF0.90259740259740251
aF1
aI123
a(lp1177
I8
aaa(lp1178
I1
aI0
aI1
aF0.99019607843137247
aF1
aI123
a(lp1179
I1
aaa(lp1180
I0
aI0
aI0
aI1
aI1
aI1
a(lp1181
aa(lp1182
I1
aI0
aI26
aF0.66883116883116878
aF1
aI123
a(lp1183
I26
aaa(lp1184
I0
aI0
aI0
aI1
aI1
aI1
a(lp1185
aa(lp1186
I0
aI1
aI0
aF0
aF0
aI123
a(lp1187
aa(lp1188
I1
aI0
aI6
aF0.92948717948717952
aF1
aI123
a(lp1189
I6
aaa(lp1190
I2
aI0
aI3
aF0.83974358974358976
aF1
aI123
a(lp1191
I3
aI23
aaa(lp1192
I11
aI4
aI1
aF0.50555555555555554
aF0.73333333333333328
aI123
a(lp1193
I1
aI3
aI16
aI19
aI20
aI21
aI23
aI24
aI40
aI52
aI53
aaa(lp1194
I15
aI0
aI1
aF0.90384615384615385
aF1
aI123
a(lp1195
I1
aI2
aI3
aI4
aI5
aI6
aI7
aI8
aI9
aI10
aI11
aI12
aI13
aI14
aI15
aaa(lp1196
I51
aI21
aI1
aF0.45625901875901881
aF0.70833333333333337
aI123
a(lp1197
I1
aI2
aI3
aI4
aI5
aI6
aI7
aI8
aI9
aI10
aI11
aI12
aI13
aI14
aI15
aI18
aI19
aI20
aI21
aI22
aI23
aI24
aI25
aI26
aI27
aI28
aI30
aI31
aI32
aI33
aI34
aI35
aI36
aI37
aI38
aI39
aI40
aI41
aI42
aI43
aI44
aI45
aI46
aI47
aI48
aI49
aI50
aI51
aI52
aI53
aI54
aaa(lp1198
I53
aI18
aI1
aF0.49920774647887323
aF0.74647887323943662
aI123
a(lp1199
I1
aI2
aI3
aI4
aI5
aI6
aI7
aI8
aI9
aI10
aI11
aI12
aI13
aI14
aI15
aI16
aI17
aI18
aI19
aI20
aI21
aI22
aI23
aI24
aI25
aI26
aI27
aI28
aI29
aI30
aI31
aI32
aI33
aI34
aI35
aI36
aI37
aI38
aI39
aI40
aI41
aI42
aI43
aI44
aI45
aI46
aI47
aI48
aI49
aI50
aI51
aI52
aI53
aaa(lp1200
I41
aI27
aI5
aF0.45675770308123242
aF0.6029411764705882
aI123
a(lp1201
I5
aI6
aI7
aI8
aI9
aI10
aI11
aI12
aI13
aI14
aI15
aI17
aI18
aI19
aI20
aI21
aI22
aI23
aI24
aI25
aI26
aI27
aI28
aI29
aI30
aI31
aI32
aI33
aI36
aI39
aI40
aI44
aI55
aI62
aI63
aI64
aI65
aI66
aI67
aI68
aI69
aaa(lp1202
I50
aI72
aI1
aF0.30708239579985003
aF0.4098360655737705
aI123
a(lp1203
I1
aI2
aI5
aI6
aI8
aI11
aI12
aI18
aI19
aI24
aI25
aI26
aI27
aI28
aI29
aI30
aI31
aI32
aI33
aI34
aI35
aI36
aI37
aI38
aI39
aI40
aI41
aI42
aI43
aI44
aI45
aI46
aI47
aI48
aI49
aI50
aI51
aI52
aI53
aI54
aI55
aI56
aI57
aI58
aI61
aI71
aI72
aI73
aI74
aI75
aaa(lp1204
I72
aI8
aI1
aF0.52325581395348841
aF0.90000000000000002
aI123
a(lp1205
I1
aI2
aI3
aI4
aI5
aI6
aI7
aI8
aI9
aI10
aI11
aI12
aI13
aI14
aI15
aI16
aI17
aI18
aI19
aI20
aI21
aI22
aI23
aI24
aI25
aI26
aI27
aI28
aI29
aI30
aI31
aI32
aI33
aI34
aI35
aI36
aI37
aI38
aI39
aI40
aI41
aI42
aI43
aI44
aI45
aI46
aI47
aI48
aI49
aI50
aI51
aI52
aI53
aI54
aI55
aI56
aI57
aI58
aI59
aI60
aI61
aI62
aI63
aI64
aI65
aI66
aI67
aI68
aI69
aI70
aI71
aI72
aaa(lp1206
I181
aI120
aI1
aF0.44179027654297887
aF0.6013289036544851
aI123
a(lp1207
I1
aI2
aI3
aI4
aI5
aI6
aI7
aI8
aI9
aI10
aI11
aI12
aI13
aI14
aI15
aI16
aI17
aI18
aI19
aI20
aI21
aI22
aI23
aI24
aI25
aI26
aI27
aI28
aI29
aI30
aI31
aI32
aI34
aI35
aI37
aI38
aI39
aI40
aI41
aI42
aI43
aI44
aI45
aI46
aI47
aI48
aI49
aI50
aI51
aI52
aI53
aI54
aI55
aI56
aI57
aI58
aI59
aI60
aI61
aI62
aI63
aI64
aI65
aI66
aI67
aI68
aI69
aI70
aI71
aI72
aI73
aI74
aI75
aI76
aI77
aI78
aI79
aI80
aI81
aI82
aI83
aI84
aI85
aI86
aI87
aI88
aI89
aI90
aI91
aI92
aI93
aI94
aI95
aI96
aI98
aI99
aI100
aI102
aI103
aI104
aI105
aI106
aI107
aI108
aI109
aI110
aI111
aI112
aI113
aI114
aI115
aI116
aI117
aI118
aI119
aI120
aI121
aI122
aI123
aI124
aI125
aI126
aI127
aI128
aI129
aI130
aI131
aI132
aI133
aI134
aI135
aI140
aI141
aI142
aI143
aI144
aI145
aI146
aI147
aI148
aI149
aI150
aI151
aI152
aI153
aI154
aI155
aI156
aI157
aI158
aI159
aI160
aI161
aI162
aI163
aI164
aI165
aI166
aI167
aI168
aI169
aI170
aI171
aI172
aI173
aI174
aI175
aI176
aI177
aI178
aI179
aI180
aI181
aI182
aI183
aI184
aI185
aI186
aI187
aI188
aI189
aaa(lp1208
I75
aI35
aI1
aF0.46236517719568559
aF0.68181818181818177
aI123
a(lp1209
I1
aI2
aI3
aI4
aI5
aI6
aI7
aI8
aI9
aI10
aI11
aI12
aI13
aI14
aI15
aI16
aI17
aI18
aI19
aI20
aI21
aI22
aI23
aI24
aI25
aI26
aI27
aI28
aI29
aI30
aI31
aI32
aI33
aI34
aI35
aI36
aI37
aI38
aI39
aI41
aI42
aI43
aI44
aI45
aI46
aI47
aI48
aI49
aI50
aI51
aI52
aI53
aI54
aI55
aI56
aI57
aI58
aI59
aI60
aI61
aI62
aI63
aI64
aI65
aI66
aI67
aI68
aI69
aI70
aI71
aI72
aI73
aI74
aI75
aI76
aaa(lp1210
I11
aI5
aI3
aF0.51409313725490191
aF0.6875
aI123
a(lp1211
I3
aI6
aI8
aI9
aI11
aI12
aI13
aI14
aI21
aI24
aI26
aaa(lp1212
I16
aI29
aI29
aF0.18974358974358976
aF0.35555555555555557
aI123
a(lp1213
I29
aI30
aI31
aI32
aI33
aI34
aI35
aI36
aI37
aI38
aI39
aI40
aI41
aI42
aI46
aI47
aaa(lp1214
I9
aI20
aI2
aF0.173874926943308
aF0.31034482758620691
aI123
a(lp1215
I2
aI19
aI28
aI29
aI30
aI31
aI32
aI33
aI34
aaa(lp1216
I14
aI12
aI3
aF0.38461538461538458
aF0.53846153846153844
aI123
a(lp1217
I3
aI6
aI7
aI8
aI9
aI10
aI11
aI12
aI13
aI14
aI15
aI16
aI17
aI18
aaa(lp1218
I38
aI31
aI1
aF0.40932738758825715
aF0.55072463768115942
aI123
a(lp1219
I1
aI3
aI4
aI5
aI6
aI7
aI8
aI9
aI10
aI11
aI12
aI13
aI14
aI15
aI16
aI17
aI18
aI19
aI20
aI21
aI22
aI23
aI24
aI25
aI26
aI27
aI28
aI29
aI30
aI31
aI32
aI33
aI34
aI35
aI36
aI37
aI38
aI41
aaa(lp1220
I21
aI0
aI1
aF0.642526455026455
aF1
aI123
a(lp1221
I1
aI3
aI7
aI18
aI19
aI22
aI25
aI26
aI27
aI28
aI29
aI30
aI31
aI32
aI33
aI34
aI35
aI36
aI37
aI38
aI40
aaa(lp1222
I80
aI57
aI1
aF0.4406430522591912
aF0.58394160583941601
aI123
a(lp1223
I1
aI2
aI3
aI4
aI5
aI6
aI7
aI8
aI9
aI10
aI11
aI12
aI13
aI14
aI15
aI16
aI17
aI18
aI19
aI20
aI21
aI22
aI23
aI24
aI25
aI26
aI27
aI28
aI29
aI30
aI31
aI32
aI33
aI34
aI35
aI36
aI37
aI38
aI39
aI40
aI41
aI42
aI43
aI44
aI45
aI46
aI47
aI48
aI49
aI50
aI51
aI52
aI53
aI54
aI55
aI56
aI57
aI58
aI59
aI60
aI61
aI62
aI63
aI64
aI65
aI66
aI67
aI68
aI69
aI70
aI71
aI72
aI73
aI74
aI75
aI76
aI77
aI78
aI79
aI80
aaa(lp1224
I136
aI56
aI1
aF0.54889686853002073
aF0.70833333333333337
aI123
a(lp1225
I1
aI2
aI3
aI7
aI8
aI9
aI10
aI11
aI12
aI13
aI14
aI15
aI16
aI17
aI18
aI19
aI20
aI21
aI22
aI23
aI24
aI25
aI26
aI27
aI28
aI29
aI30
aI31
aI32
aI33
aI34
aI35
aI36
aI37
aI38
aI39
aI40
aI41
aI42
aI43
aI44
aI45
aI46
aI47
aI48
aI49
aI50
aI51
aI52
aI53
aI54
aI55
aI56
aI57
aI58
aI59
aI60
aI61
aI62
aI63
aI64
aI65
aI66
aI67
aI69
aI70
aI71
aI72
aI73
aI74
aI75
aI76
aI77
aI78
aI79
aI80
aI81
aI82
aI83
aI84
aI85
aI86
aI87
aI88
aI89
aI90
aI91
aI92
aI93
aI94
aI95
aI96
aI97
aI98
aI99
aI100
aI101
aI102
aI103
aI104
aI105
aI106
aI107
aI108
aI109
aI110
aI111
aI114
aI115
aI116
aI117
aI118
aI122
aI123
aI124
aI125
aI126
aI127
aI128
aI129
aI130
aI131
aI132
aI133
aI134
aI135
aI136
aI137
aI138
aI139
aI140
aI141
aI144
aI145
aI146
aI147
aaa(lp1226
I0
aI1
aI0
aF0
aF0
aI123
a(lp1227
aa(lp1228
I81
aI11
aI1
aF0.65475371491469458
aF0.88043478260869568
aI123
a(lp1229
I1
aI2
aI3
aI4
aI5
aI6
aI7
aI8
aI9
aI10
aI11
aI12
aI13
aI14
aI15
aI16
aI17
aI18
aI19
aI20
aI21
aI22
aI23
aI24
aI25
aI26
aI27
aI28
aI29
aI30
aI31
aI32
aI33
aI34
aI35
aI36
aI37
aI38
aI39
aI40
aI41
aI42
aI43
aI44
aI45
aI46
aI47
aI48
aI49
aI50
aI51
aI52
aI53
aI54
aI55
aI56
aI57
aI58
aI59
aI60
aI61
aI62
aI63
aI64
aI65
aI66
aI67
aI68
aI69
aI70
aI71
aI72
aI73
aI74
aI75
aI76
aI77
aI78
aI79
aI80
aI81
aaa(lp1230
I9
aI7
aI12
aF0.36487676056338031
aF0.5625
aI123
a(lp1231
I12
aI17
aI19
aI24
aI26
aI30
aI32
aI33
aI36
aaa(lp1232
I8
aI3
aI2
aF0.58989898989898992
aF0.72727272727272729
aI123
a(lp1233
I2
aI3
aI5
aI9
aI10
aI11
aI12
aI20
aaa(lp1234
I92
aI82
aI1
aF0.41256981950791671
aF0.52873563218390807
aI123
a(lp1235
I1
aI2
aI5
aI6
aI7
aI8
aI9
aI13
aI14
aI15
aI16
aI17
aI18
aI19
aI20
aI21
aI22
aI23
aI24
aI25
aI26
aI27
aI28
aI29
aI30
aI33
aI34
aI35
aI36
aI37
aI38
aI39
aI40
aI41
aI42
aI43
aI44
aI45
aI46
aI47
aI48
aI49
aI50
aI51
aI52
aI53
aI54
aI55
aI56
aI57
aI58
aI59
aI60
aI61
aI62
aI63
aI64
aI65
aI66
aI67
aI68
aI69
aI70
aI71
aI72
aI73
aI74
aI75
aI76
aI77
aI79
aI81
aI82
aI83
aI84
aI85
aI86
aI87
aI88
aI89
aI90
aI91
aI92
aI93
aI94
aI122
aI123
aI124
aI125
aI126
aI127
aI128
aaa(lp1236
I154
aI133
aI3
aF0.38356486718856064
aF0.53658536585365857
aI123
a(lp1237
I3
aI5
aI7
aI9
aI10
aI12
aI13
aI14
aI15
aI17
aI20
aI21
aI22
aI23
aI26
aI27
aI28
aI29
aI30
aI31
aI32
aI34
aI35
aI36
aI37
aI38
aI43
aI46
aI47
aI48
aI49
aI50
aI54
aI57
aI59
aI60
aI61
aI62
aI63
aI64
aI65
aI66
aI67
aI68
aI69
aI70
aI71
aI83
aI84
aI85
aI86
aI87
aI88
aI89
aI90
aI91
aI92
aI93
aI94
aI95
aI96
aI97
aI98
aI99
aI100
aI101
aI102
aI103
aI104
aI105
aI106
aI107
aI108
aI109
aI110
aI111
aI112
aI113
aI114
aI115
aI116
aI117
aI118
aI119
aI120
aI125
aI126
aI127
aI128
aI129
aI130
aI131
aI132
aI133
aI134
aI135
aI136
aI137
aI138
aI139
aI140
aI141
aI142
aI143
aI144
aI145
aI146
aI147
aI148
aI149
aI150
aI151
aI152
aI153
aI154
aI155
aI156
aI157
aI158
aI159
aI160
aI161
aI162
aI163
aI164
aI165
aI166
aI179
aI180
aI181
aI182
aI183
aI184
aI185
aI187
aI188
aI189
aI190
aI191
aI192
aI193
aI194
aI195
aI196
aI197
aI198
aI199
aI200
aI201
aI202
aI203
aI204
aI205
aI206
aaa(lp1238
I156
aI125
aI32
aF0.37350152860959213
aF0.55516014234875444
aI123
a(lp1239
I32
aI33
aI34
aI35
aI36
aI37
aI38
aI39
aI40
aI41
aI42
aI43
aI44
aI45
aI46
aI47
aI48
aI49
aI50
aI51
aI52
aI53
aI54
aI55
aI56
aI57
aI58
aI59
aI60
aI61
aI62
aI63
aI64
aI65
aI66
aI67
aI68
aI69
aI71
aI72
aI84
aI86
aI88
aI89
aI90
aI91
aI92
aI93
aI95
aI96
aI97
aI98
aI99
aI100
aI101
aI102
aI103
aI104
aI105
aI106
aI107
aI108
aI109
aI110
aI111
aI112
aI113
aI114
aI115
aI116
aI117
aI118
aI119
aI120
aI121
aI122
aI123
aI124
aI125
aI126
aI127
aI128
aI129
aI130
aI131
aI132
aI133
aI134
aI135
aI136
aI137
aI138
aI139
aI140
aI141
aI142
aI143
aI144
aI145
aI146
aI147
aI148
aI149
aI150
aI151
aI152
aI153
aI154
aI155
aI156
aI157
aI158
aI159
aI160
aI161
aI162
aI163
aI164
aI165
aI166
aI167
aI168
aI169
aI170
aI171
aI175
aI176
aI177
aI178
aI179
aI180
aI181
aI182
aI183
aI184
aI185
aI186
aI187
aI188
aI189
aI190
aI191
aI192
aI193
aI194
aI195
aI196
aI197
aI198
aI199
aI200
aI202
aI203
aI205
aI206
aI207
aaa(lp1240
I55
aI34
aI1
aF0.510313195462194
aF0.6179775280898876
aI123
a(lp1241
I1
aI3
aI5
aI6
aI7
aI8
aI9
aI10
aI11
aI12
aI13
aI14
aI15
aI16
aI17
aI18
aI19
aI20
aI21
aI22
aI23
aI24
aI25
aI26
aI27
aI28
aI30
aI31
aI32
aI33
aI34
aI35
aI39
aI40
aI42
aI44
aI45
aI46
aI47
aI48
aI49
aI50
aI51
aI53
aI54
aI56
aI57
aI58
aI59
aI69
aI76
aI106
aI108
aI109
aI110
aaa(lp1242
I4
aI1
aI1
aF0.6692307692307693
aF0.80000000000000004
aI123
a(lp1243
I1
aI3
aI10
aI39
aaa(lp1244
I1
aI1
aI2
aF0.49038461538461536
aF0.5
aI123
a(lp1245
I2
aaa(lp1246
I1
aI0
aI3
aF0.89130434782608692
aF1
aI123
a(lp1247
I3
aaa(lp1248
I6
aI0
aI1
aF0.69496855345911956
aF1
aI123
a(lp1249
I1
aI25
aI32
aI44
aI46
aI49
aaa(lp1250
I4
aI0
aI1
aF0.95454545454545447
aF1
aI123
a(lp1251
I1
aI4
aI5
aI6
aaa(lp1252
I4
aI1
aI1
aF0.77894736842105272
aF0.80000000000000004
aI123
a(lp1253
I1
aI2
aI3
aI4
aaa(lp1254
I3
aI0
aI1
aF0.90185185185185179
aF1
aI123
a(lp1255
I1
aI10
aI17
aaa(lp1256
I1
aI0
aI1
aF0.99367088607594944
aF1
aI123
a(lp1257
I1
aaa(lp1258
I3
aI0
aI1
aF0.80921052631578938
aF1
aI123
a(lp1259
I1
aI19
aI25
aaa(lp1260
I2
aI0
aI1
aF0.79113924050632911
aF1
aI123
a(lp1261
I1
aI33
aaa(lp1262
I3
aI6
aI1
aF0.31549439347604485
aF0.33333333333333331
aI123
a(lp1263
I1
aI3
aI15
aaa(lp1264
I4
aI0
aI1
aF0.76623376623376616
aF1
aI123
a(lp1265
I1
aI10
aI21
aI42
aaa(lp1266
I4
aI6
aI2
aF0.35316455696202537
aF0.40000000000000002
aI123
a(lp1267
I2
aI3
aI4
aI30
aaa(lp1268
I3
aI0
aI1
aF0.98076923076923073
aF1
aI123
a(lp1269
I1
aI2
aI3
aaa(lp1270
I3
aI0
aI1
aF0.98076923076923073
aF1
aI123
a(lp1271
I1
aI2
aI3
aaa(lp1272
I3
aI0
aI1
aF0.98051948051948046
aF1
aI123
a(lp1273
I1
aI2
aI3
aaa(lp1274
I3
aI0
aI1
aF0.98076923076923073
aF1
aI123
a(lp1275
I1
aI2
aI3
aaa(lp1276
I3
aI4
aI1
aF0.33823529411764702
aF0.42857142857142855
aI123
a(lp1277
I1
aI2
aI20
aaa(lp1278
I2
aI0
aI1
aF0.98076923076923073
aF1
aI123
a(lp1279
I1
aI3
aaa(lp1280
I2
aI0
aI1
aF0.98717948717948711
aF1
aI123
a(lp1281
I1
aI2
aaa(lp1282
I2
aI0
aI1
aF0.98717948717948711
aF1
aI123
a(lp1283
I1
aI2
aaa(lp1284
I19
aI1
aI1
aF0.82561728395061729
aF0.94999999999999996
aI123
a(lp1285
I1
aI2
aI3
aI4
aI5
aI6
aI7
aI9
aI10
aI11
aI13
aI14
aI15
aI16
aI17
aI18
aI19
aI20
aI21
aaa(lp1286
I66
aI23
aI1
aF0.55151253241140874
aF0.7415730337078652
aI123
a(lp1287
I1
aI2
aI3
aI4
aI5
aI6
aI7
aI8
aI9
aI10
aI11
aI12
aI13
aI14
aI15
aI16
aI17
aI18
aI19
aI20
aI21
aI22
aI23
aI24
aI25
aI26
aI27
aI28
aI29
aI30
aI31
aI32
aI33
aI34
aI35
aI36
aI37
aI38
aI39
aI40
aI41
aI42
aI43
aI44
aI45
aI46
aI47
aI48
aI49
aI50
aI51
aI53
aI54
aI55
aI56
aI57
aI58
aI59
aI60
aI61
aI63
aI64
aI65
aI66
aI67
aI68
aaa(lp1288
I2
aI1
aI1
aF0.53333333333333333
aF0.66666666666666663
aI123
a(lp1289
I1
aI6
aaa(lp1290
I11
aI11
aI1
aF0.38172541743970317
aF0.5
aI123
a(lp1291
I1
aI3
aI4
aI7
aI8
aI9
aI10
aI20
aI21
aI23
aI27
aaa(lp1292
I6
aI0
aI3
aF0.90447154471544722
aF1
aI123
a(lp1293
I3
aI4
aI6
aI10
aI11
aI16
aaa(lp1294
I4
aI0
aI1
aF0.97499999999999998
aF1
aI123
a(lp1295
I1
aI2
aI3
aI4
aaa(lp1296
I11
aI0
aI1
aF0.93678160919540232
aF1
aI123
a(lp1297
I1
aI2
aI3
aI4
aI5
aI6
aI7
aI8
aI9
aI10
aI11
aaa(lp1298
I3
aI0
aI1
aF0.98101265822784811
aF1
aI123
a(lp1299
I1
aI2
aI3
aaa(lp1300
I2
aI0
aI1
aF0.98630136986301375
aF1
aI123
a(lp1301
I1
aI2
aaa(lp1302
I3
aI0
aI1
aF0.9821428571428571
aF1
aI123
a(lp1303
I1
aI2
aI3
aaa(lp1304
I3
aI4
aI1
aF0.34663865546218481
aF0.42857142857142855
aI123
a(lp1305
I1
aI2
aI18
aaa(lp1306
I3
aI0
aI1
aF0.98101265822784811
aF1
aI123
a(lp1307
I1
aI2
aI3
aaa(lp1308
I3
aI0
aI1
aF0.98101265822784811
aF1
aI123
a(lp1309
I1
aI2
aI3
aaa(lp1310
I3
aI0
aI1
aF0.98101265822784811
aF1
aI123
a(lp1311
I1
aI2
aI3
aaa(lp1312
I4
aI0
aI1
aF0.88461538461538458
aF1
aI123
a(lp1313
I1
aI2
aI3
aI32
aaa(lp1314
I3
aI0
aI1
aF0.98000000000000009
aF1
aI123
a(lp1315
I1
aI2
aI3
aaa(lp1316
I3
aI0
aI1
aF0.98192771084337349
aF1
aI123
a(lp1317
I1
aI2
aI3
aaa(lp1318
I2
aI5
aI1
aF0.27731092436974786
aF0.2857142857142857
aI123
a(lp1319
I1
aI2
aaa(lp1320
I3
aI0
aI1
aF0.98076923076923073
aF1
aI123
a(lp1321
I1
aI2
aI3
aaa(lp1322
I7
aI0
aI1
aF0.95783132530120474
aF1
aI123
a(lp1323
I1
aI2
aI3
aI4
aI5
aI6
aI7
aaa(lp1324
I7
aI0
aI1
aF0.95783132530120474
aF1
aI123
a(lp1325
I1
aI2
aI3
aI4
aI5
aI6
aI7
aaa(lp1326
I3
aI0
aI1
aF0.98101265822784811
aF1
aI123
a(lp1327
I1
aI2
aI3
aaa(lp1328
I3
aI0
aI1
aF0.97887323943661975
aF1
aI123
a(lp1329
I1
aI2
aI3
aaa(lp1330
I5
aI0
aI1
aF0.97032967032967032
aF1
aI123
a(lp1331
I1
aI2
aI3
aI4
aI6
aaa(lp1332
I5
aI0
aI1
aF0.86146788990825685
aF1
aI123
a(lp1333
I1
aI2
aI3
aI4
aI68
aaa(lp1334
I6
aI0
aI2
aF0.95348837209302328
aF1
aI123
a(lp1335
I2
aI3
aI4
aI5
aI6
aI7
aaa(lp1336
I2
aI0
aI1
aF0.98734177215189878
aF1
aI123
a(lp1337
I1
aI2
aaa(lp1338
I6
aI3
aI1
aF0.63920099875156056
aF0.66666666666666663
aI123
a(lp1339
I1
aI2
aI4
aI5
aI6
aI7
aaa(lp1340
I3
aI0
aI1
aF0.97291666666666665
aF1
aI123
a(lp1341
I1
aI2
aI5
aaa(lp1342
I3
aI0
aI1
aF0.9282407407407407
aF1
aI123
a(lp1343
I1
aI2
aI14
aaa(lp1344
I2
aI0
aI1
aF0.98823529411764699
aF1
aI123
a(lp1345
I1
aI2
aaa(lp1346
I12
aI7
aI2
aF0.47503373819163291
aF0.63157894736842102
aI123
a(lp1347
I2
aI3
aI4
aI5
aI6
aI7
aI8
aI10
aI14
aI19
aI21
aI23
aaa(lp1348
I3
aI0
aI1
aF0.94374999999999998
aF1
aI123
a(lp1349
I1
aI2
aI12
aaa(lp1350
I2
aI1
aI1
aF0.65416666666666656
aF0.66666666666666663
aI123
a(lp1351
I1
aI3
aaa(lp1352
I2
aI0
aI2
aF0.97530864197530864
aF1
aI123
a(lp1353
I2
aI3
aaa(lp1354
I2
aI0
aI3
aF0.98159509202453987
aF1
aI123
a(lp1355
I3
aI4
aaa(lp1356
I0
aI0
aI0
aI1
aI1
aI1
a(lp1357
aa(lp1358
I0
aI0
aI0
aI1
aI1
aI1
a(lp1359
aa(lp1360
I4
aI1
aI1
aF0.58421052631578951
aF0.80000000000000004
aI123
a(lp1361
I1
aI12
aI13
aI17
aaa(lp1362
I0
aI0
aI0
aI1
aI1
aI1
a(lp1363
aa(lp1364
I0
aI0
aI0
aI1
aI1
aI1
a(lp1365
aa(lp1366
I0
aI0
aI0
aI1
aI1
aI1
a(lp1367
aa(lp1368
I0
aI0
aI0
aI1
aI1
aI1
a(lp1369
aa(lp1370
I0
aI0
aI0
aI1
aI1
aI1
a(lp1371
aa(lp1372
I0
aI0
aI0
aI1
aI1
aI1
a(lp1373
aa(lp1374
I9
aI0
aI1
aF0.90350877192982459
aF1
aI123
a(lp1375
I1
aI2
aI5
aI7
aI8
aI9
aI10
aI11
aI34
aaa(lp1376
I7
aI1
aI1
aF0.83263888888888882
aF0.875
aI123
a(lp1377
I1
aI3
aI4
aI5
aI6
aI7
aI8
aaa(lp1378
I1
aI3
aI26
aF0.18145161290322581
aF0.25
aI123
a(lp1379
I26
aaa(lp1380
I5
aI0
aI2
aF0.95568181818181819
aF1
aI123
a(lp1381
I2
aI3
aI4
aI6
aI7
aaa(lp1382
I3
aI1
aI1
aF0.73382352941176465
aF0.75
aI123
a(lp1383
I1
aI2
aI4
aaa(lp1384
I1
aI0
aI1
aF0.99382716049382713
aF1
aI123
a(lp1385
I1
aaa(lp1386
I1
aI0
aI1
aF0.99358974358974361
aF1
aI123
a(lp1387
I1
aaa(lp1388
I3
aI0
aI1
aF0.9831460674157303
aF1
aI123
a(lp1389
I1
aI2
aI3
aaa(lp1390
I1
aI0
aI1
aF0.99390243902439024
aF1
aI123
a(lp1391
I1
aaa(lp1392
I1
aI1
aI1
aF0.49695121951219512
aF0.5
aI123
a(lp1393
I1
aaa(lp1394
I7
aI1
aI2
aF0.76491477272727282
aF0.875
aI123
a(lp1395
I2
aI3
aI5
aI6
aI7
aI10
aI48
aaa(lp1396
I6
aI0
aI2
aF0.94444444444444442
aF1
aI123
a(lp1397
I2
aI3
aI4
aI5
aI7
aI8
aaa(lp1398
I2
aI0
aI1
aF0.98765432098765438
aF1
aI123
a(lp1399
I1
aI2
aaa(lp1400
I0
aI0
aI0
aI1
aI1
aI1
a(lp1401
aa(lp1402
I0
aI1
aI0
aF0
aF0
aI123
a(lp1403
aa(lp1404
I2
aI0
aI1
aF0.98780487804878048
aF1
aI123
a(lp1405
I1
aI2
aaa(lp1406
I2
aI0
aI1
aF0.98780487804878048
aF1
aI123
a(lp1407
I1
aI2
aaa(lp1408
I13
aI3
aI1
aF0.58574695121951226
aF0.8125
aI123
a(lp1409
I1
aI2
aI13
aI15
aI17
aI18
aI19
aI20
aI22
aI38
aI44
aI47
aI48
aaa(lp1410
I15
aI0
aI1
aF0.90740740740740744
aF1
aI123
a(lp1411
I1
aI2
aI3
aI4
aI5
aI6
aI7
aI8
aI9
aI10
aI11
aI12
aI13
aI14
aI15
aaa(lp1412
I49
aI33
aI1
aF0.41902141582391433
aF0.59756097560975607
aI123
a(lp1413
I1
aI2
aI3
aI4
aI5
aI6
aI7
aI8
aI9
aI10
aI11
aI12
aI13
aI14
aI15
aI16
aI17
aI18
aI19
aI20
aI21
aI22
aI23
aI24
aI25
aI26
aI27
aI28
aI29
aI30
aI31
aI32
aI33
aI34
aI35
aI36
aI37
aI38
aI39
aI40
aI41
aI42
aI43
aI44
aI45
aI46
aI47
aI48
aI49
aaa(lp1414
I2
aI0
aI1
aF0.84615384615384615
aF1
aI123
a(lp1415
I1
aI8
aaa(lp1416
I14
aI0
aI1
aF0.875
aF1
aI123
a(lp1417
I1
aI2
aI3
aI4
aI5
aI6
aI7
aI8
aI9
aI10
aI11
aI12
aI13
aI14
aaa(lp1418
I0
aI1
aI0
aF0
aF0
aI123
a(lp1419
aa(lp1420
I6
aI1
aI2
aF0.81292517006802711
aF0.8571428571428571
aI123
a(lp1421
I2
aI5
aI6
aI11
aI12
aI19
aaa(lp1422
I2
aI0
aI1
aF0.98717948717948711
aF1
aI123
a(lp1423
I1
aI2
aaa(lp1424
I4
aI1
aI2
aF0.77419354838709675
aF0.80000000000000004
aI123
a(lp1425
I2
aI3
aI4
aI5
aaa(lp1426
I0
aI0
aI0
aI1
aI1
aI1
a(lp1427
aa(lp1428
I4
aI0
aI1
aF0.71428571428571419
aF1
aI123
a(lp1429
I1
aI2
aI3
aI4
aaa(lp1430
I0
aI0
aI0
aI1
aI1
aI1
a(lp1431
aa(lp1432
I22
aI12
aI6
aF0.39024390243902446
aF0.6470588235294118
aI123
a(lp1433
I6
aI7
aI9
aI16
aI20
aI21
aI26
aI28
aI35
aI37
aI38
aI39
aI40
aI41
aI42
aI43
aI44
aI45
aI46
aI47
aI48
aI49
aaa(lp1434
I5
aI0
aI1
aF0.97093023255813959
aF1
aI123
a(lp1435
I1
aI2
aI3
aI4
aI5
aaa(lp1436
I1
aI0
aI1
aF0.99473684210526314
aF1
aI123
a(lp1437
I1
aaa(lp1438
I3
aI1
aI1
aF0.73660714285714279
aF0.75
aI123
a(lp1439
I1
aI2
aI3
aaa(lp1440
I9
aI0
aI1
aF0.94999999999999996
aF1
aI123
a(lp1441
I1
aI2
aI3
aI4
aI5
aI6
aI7
aI8
aI9
aaa(lp1442
I7
aI1
aI2
aF0.83075842696629221
aF0.875
aI123
a(lp1443
I2
aI3
aI4
aI5
aI6
aI7
aI8
aaa(lp1444
I0
aI0
aI0
aI1
aI1
aI1
a(lp1445
aa(lp1446
I0
aI2
aI0
aF0
aF0
aI123
a(lp1447
aa(lp1448
I6
aI1
aI1
aF0.79206349206349203
aF0.8571428571428571
aI123
a(lp1449
I1
aI2
aI3
aI5
aI7
aI26
aaa(lp1450
I0
aI1
aI0
aF0
aF0
aI123
a(lp1451
aa(lp1452
I0
aI0
aI0
aI1
aI1
aI1
a(lp1453
aa(lp1454
I0
aI1
aI0
aF0
aF0
aI123
a(lp1455
aa(lp1456
I5
aI1
aI1
aF0.80490196078431375
aF0.83333333333333337
aI123
a(lp1457
I1
aI2
aI3
aI4
aI7
aaa(lp1458
I2
aI1
aI1
aF0.65853658536585358
aF0.66666666666666663
aI123
a(lp1459
I1
aI2
aaa(lp1460
I0
aI0
aI0
aI1
aI1
aI1
a(lp1461
aa(lp1462
I2
aI0
aI3
aF0.96470588235294119
aF1
aI123
a(lp1463
I3
aI4
aaa(lp1464
I4
aI0
aI2
aF0.94329896907216493
aF1
aI123
a(lp1465
I2
aI4
aI5
aI13
aaasS'env'
p1466
S'paintcontrol'
p1467
sS'action_size'
p1468
I1
sS'hidden_size'
p1469
S'12x12'
p1470
sg375
(lp1471
I0
aI0
aI0
aI0
aI0
aI0
aI0
aI0
aI0
aI0
aI31
aI53
aI0
aI0
aI0
aI0
aI0
aI8
aI0
aI0
aI0
aI0
aI0
aI0
aI0
aI0
aI0
aI0
aI0
aI0
aI0
aI47
aI2
aI1
aI1
aI1
aI0
aI8
aI0
aI1
aI27
aI0
aI0
aI0
aI19
aI0
aI0
aI0
aI0
aI36
aI4
aI1
aI0
aI0
aI28
aI0
aI0
aI0
aI0
aI0
aI0
aI1
aI1
aI1
aI1
aI3
aI0
aI9
aI0
aI0
aI0
aI0
aI0
aI0
aI0
aI0
aI0
aI1
aI0
aI18
aI0
aI0
aI1
aI1
aI1
aI1
aI0
aI0
aI52
aI7
aI0
aI0
aI0
aI50
aI0
aI0
aI0
aI1
aI1
aI2
aI1
aI1
aI1
aI4
aI0
aI0
aI0
aI13
aI5
aI1
aI1
aI0
aI0
aI1
aI0
aI0
aI0
aI0
aI0
aI0
aI0
aI0
aI2
aI1
aI0
aI0
aI0
aI0
aI0
aI5
aI0
aI0
aI0
aI0
aI0
aI0
aI0
aI1
aI1
aI1
aI1
aI2
aI2
aI44
aI0
aI0
aI0
aI0
aI2
aI1
aI1
aI1
aI0
aI0
aI0
aI10
aI0
aI0
aI0
aI0
aI0
aI48
aI2
aI1
aI1
aI1
aI1
aI1
aI3
aI1
aI1
aI9
aI34
aI31
aI29
aI30
aI30
aI4
aI4
aI0
aI0
aI0
aI0
aI38
aI20
aI19
aI1
aI0
aI2
aI0
aI0
aI0
aI0
aI0
aI0
aI0
aI0
aI0
aI16
aI5
aI3
aI0
aI0
aI44
aI0
aI2
aI0
aI8
aI1
aI0
aI26
aI0
aI0
aI6
aI3
aI1
aI1
aI1
aI1
aI5
aI1
aI1
aI1
aI1
aI3
aI29
aI2
aI3
aI1
aI1
aI1
aI1
aI0
aI1
aI12
aI2
aI1
aI3
aI32
aI1
aI1
aI2
aI3
aI1
aI1
aI1
aI1
aI1
aI1
aI1
aI1
aI1
aI2
aI1
aI1
aI1
aI1
aI1
aI1
aI1
aI1
aI1
aI1
aI1
aI1
aI3
aI1
aI1
aI1
aI1
aI1
aI1
aI1
aI1
aI1
aI1
aI1
aI1
aI1
aI1
aI1
aI1
aI1
aI1
aI1
aI1
aI2
aI1
aI1
aI1
aI1
aI1
aI2
aI1
aI1
aI2
aI3
aI0
aI0
aI1
aI0
aI0
aI0
aI0
aI0
aI0
aI1
aI1
aI26
aI2
aI1
aI1
aI1
aI1
aI1
aI1
aI2
aI2
aI1
aI0
aI0
aI1
aI1
aI1
aI1
aI1
aI1
aI1
aI0
aI2
aI1
aI2
aI0
aI1
aI0
aI6
aI1
aI1
aI1
aI1
aI2
aI0
aI0
aI1
aI0
aI0
aI0
aI1
aI1
aI0
aI3
aI2
asg377
(lp1472
I1
aI1
aF0
aF0
aI1
aI1
aF0
aF0
aI1
aF0
aF0.34957627118644063
aF0.046296296296296287
aF0
aF0
aI1
aI1
aF0
aF0.77272727272727271
aI1
aI1
aI1
aI1
aF0
aF0
aI1
aI1
aI1
aI1
aI1
aF0
aF0
aF0.064488636363636373
aF0.57964601769911506
aF0.31013071895424837
aF0.37766281192939744
aF0.43216175359032499
aI1
aF0.44838709677419353
aF0
aF0.33667452830188682
aF0.69458128078817738
aF0
aI1
aI1
aF0.4045608108108108
aI1
aI1
aI1
aI1
aF0.65533980582524265
aF0.17240627724498694
aF0.72705314009661837
aI1
aI1
aF0.65625
aI1
aI1
aI1
aI1
aI1
aF0
aF0.99295774647887325
aF0.99342105263157887
aF0.99295774647887325
aF0.734375
aF0.94680851063829785
aF0
aF0.88666666666666671
aI1
aI1
aI1
aI1
aI1
aI1
aI1
aI1
aI1
aF0.98571428571428565
aI1
aF0.7635135135135136
aI1
aI1
aF0.72404473438956196
aF0.45580715850986125
aF0.45580715850986125
aF0.45580715850986125
aI1
aI1
aF0.16118421052631579
aF0.54276315789473684
aI1
aI1
aI1
aF0.33108108108108109
aI1
aI1
aI1
aF0.45768518518518525
aF0.52105263157894732
aF0.42492260061919507
aF0.42214912280701755
aF0.43402777777777779
aF0.4509320175438597
aF0.24142156862745098
aI1
aI1
aI1
aF0.83333333333333337
aF0.94078947368421051
aF0.99342105263157887
aF0.99350649350649345
aI1
aI1
aF0.87179487179487181
aF0
aI1
aI1
aI1
aI1
aI1
aI1
aI1
aF0.45458698830409361
aF0.47944078947368429
aI1
aI1
aI1
aI1
aI1
aF0.41910331384015587
aI1
aI1
aI1
aI1
aI1
aI1
aF0
aF0.88157894736842102
aF0.99305555555555558
aF0.99358974358974361
aF0.87662337662337653
aF0.97972972972972983
aF0.98101265822784811
aF0.21381578947368421
aF0
aF0
aI1
aI1
aF0.43863636363636366
aF0.64852472089314206
aF0.76555023923444976
aF0.76282828282828286
aI1
aF0
aF0
aF0.3686635944700461
aF0
aF0
aF0
aF0
aF0
aF0.063852813852813842
aF0.45614035087719301
aF0.47069444444444442
aF0.55902777777777779
aF0.61403508771929827
aF0.60084427767354587
aF0.5805958747135217
aF0.52606177606177618
aF0.38132045088566829
aF0.94642857142857151
aF0.71415441176470584
aF0.5641025641025641
aF0.60389610389610382
aF0.31730769230769229
aF0.20045045045045043
aF0.42276422764227645
aF0.68750000000000011
aF0.063888888888888884
aF0
aF0
aF0
aF0
aF0.17510548523206748
aF0.35000000000000003
aF0.38141025641025639
aF0.49679487179487181
aF0
aF0.32692307692307687
aF0
aI1
aI1
aF0
aF0
aF0
aF0
aF0
aI1
aF0.26515151515151514
aF0.48819163292847506
aF0.22513597513597511
aF0
aF0
aF0.21381578947368421
aF0
aF0.95454545454545459
aF0
aF0.90259740259740251
aF0.99019607843137247
aI1
aF0.66883116883116878
aI1
aF0
aF0.92948717948717952
aF0.83974358974358976
aF0.50555555555555554
aF0.90384615384615385
aF0.45625901875901881
aF0.49920774647887323
aF0.45675770308123242
aF0.30708239579985003
aF0.52325581395348841
aF0.44179027654297887
aF0.46236517719568559
aF0.51409313725490191
aF0.18974358974358976
aF0.173874926943308
aF0.38461538461538458
aF0.40932738758825715
aF0.642526455026455
aF0.4406430522591912
aF0.54889686853002073
aF0
aF0.65475371491469458
aF0.36487676056338031
aF0.58989898989898992
aF0.41256981950791671
aF0.38356486718856064
aF0.37350152860959213
aF0.510313195462194
aF0.6692307692307693
aF0.49038461538461536
aF0.89130434782608692
aF0.69496855345911956
aF0.95454545454545447
aF0.77894736842105272
aF0.90185185185185179
aF0.99367088607594944
aF0.80921052631578938
aF0.79113924050632911
aF0.31549439347604485
aF0.76623376623376616
aF0.35316455696202537
aF0.98076923076923073
aF0.98076923076923073
aF0.98051948051948046
aF0.98076923076923073
aF0.33823529411764702
aF0.98076923076923073
aF0.98717948717948711
aF0.98717948717948711
aF0.82561728395061729
aF0.55151253241140874
aF0.53333333333333333
aF0.38172541743970317
aF0.90447154471544722
aF0.97499999999999998
aF0.93678160919540232
aF0.98101265822784811
aF0.98630136986301375
aF0.9821428571428571
aF0.34663865546218481
aF0.98101265822784811
aF0.98101265822784811
aF0.98101265822784811
aF0.88461538461538458
aF0.98000000000000009
aF0.98192771084337349
aF0.27731092436974786
aF0.98076923076923073
aF0.95783132530120474
aF0.95783132530120474
aF0.98101265822784811
aF0.97887323943661975
aF0.97032967032967032
aF0.86146788990825685
aF0.95348837209302328
aF0.98734177215189878
aF0.63920099875156056
aF0.97291666666666665
aF0.9282407407407407
aF0.98823529411764699
aF0.47503373819163291
aF0.94374999999999998
aF0.65416666666666656
aF0.97530864197530864
aF0.98159509202453987
aI1
aI1
aF0.58421052631578951
aI1
aI1
aI1
aI1
aI1
aI1
aF0.90350877192982459
aF0.83263888888888882
aF0.18145161290322581
aF0.95568181818181819
aF0.73382352941176465
aF0.99382716049382713
aF0.99358974358974361
aF0.9831460674157303
aF0.99390243902439024
aF0.49695121951219512
aF0.76491477272727282
aF0.94444444444444442
aF0.98765432098765438
aI1
aF0
aF0.98780487804878048
aF0.98780487804878048
aF0.58574695121951226
aF0.90740740740740744
aF0.41902141582391433
aF0.84615384615384615
aF0.875
aF0
aF0.81292517006802711
aF0.98717948717948711
aF0.77419354838709675
aI1
aF0.71428571428571419
aI1
aF0.39024390243902446
aF0.97093023255813959
aF0.99473684210526314
aF0.73660714285714279
aF0.94999999999999996
aF0.83075842696629221
aI1
aF0
aF0.79206349206349203
aF0
aI1
aF0
aF0.80490196078431375
aF0.65853658536585358
aI1
aF0.96470588235294119
aF0.94329896907216493
asS'rewardfun'
p1473
S'tcfail'
p1474
s.